
input4.mips.o:     file format elf32-tradbigmips


Disassembly of section .text:

00000000 <main>:
       0:	27bd8010 	addiu	sp,sp,-32752
       4:	afbe7fec 	sw	s8,32748(sp)
       8:	27bde388 	addiu	sp,sp,-7288
       c:	03a0f021 	move	s8,sp
      10:	afc00010 	sw	zero,16(s8)
      14:	afc00014 	sw	zero,20(s8)
      18:	240224a7 	li	v0,9383
      1c:	afc2001c 	sw	v0,28(s8)
      20:	24020376 	li	v0,886
      24:	afc20020 	sw	v0,32(s8)
      28:	24020ad9 	li	v0,2777
      2c:	afc20024 	sw	v0,36(s8)
      30:	24021b03 	li	v0,6915
      34:	afc20028 	sw	v0,40(s8)
      38:	24021e71 	li	v0,7793
      3c:	afc2002c 	sw	v0,44(s8)
      40:	2402208f 	li	v0,8335
      44:	afc20030 	sw	v0,48(s8)
      48:	2402150a 	li	v0,5386
      4c:	afc20034 	sw	v0,52(s8)
      50:	240201ec 	li	v0,492
      54:	afc20038 	sw	v0,56(s8)
      58:	240219f9 	li	v0,6649
      5c:	afc2003c 	sw	v0,60(s8)
      60:	2402058d 	li	v0,1421
      64:	afc20040 	sw	v0,64(s8)
      68:	2402093a 	li	v0,2362
      6c:	afc20044 	sw	v0,68(s8)
      70:	2402001b 	li	v0,27
      74:	afc20048 	sw	v0,72(s8)
      78:	240221f2 	li	v0,8690
      7c:	afc2004c 	sw	v0,76(s8)
      80:	2402003b 	li	v0,59
      84:	afc20050 	sw	v0,80(s8)
      88:	24021e53 	li	v0,7763
      8c:	afc20054 	sw	v0,84(s8)
      90:	24020f56 	li	v0,3926
      94:	afc20058 	sw	v0,88(s8)
      98:	2402021c 	li	v0,540
      9c:	afc2005c 	sw	v0,92(s8)
      a0:	24020d62 	li	v0,3426
      a4:	afc20060 	sw	v0,96(s8)
      a8:	240223d4 	li	v0,9172
      ac:	afc20064 	sw	v0,100(s8)
      b0:	24021668 	li	v0,5736
      b4:	afc20068 	sw	v0,104(s8)
      b8:	2402145b 	li	v0,5211
      bc:	afc2006c 	sw	v0,108(s8)
      c0:	240214f8 	li	v0,5368
      c4:	afc20070 	sw	v0,112(s8)
      c8:	24020a07 	li	v0,2567
      cc:	afc20074 	sw	v0,116(s8)
      d0:	2402191d 	li	v0,6429
      d4:	afc20078 	sw	v0,120(s8)
      d8:	24021696 	li	v0,5782
      dc:	afc2007c 	sw	v0,124(s8)
      e0:	240205fa 	li	v0,1530
      e4:	afc20080 	sw	v0,128(s8)
      e8:	24020b2e 	li	v0,2862
      ec:	afc20084 	sw	v0,132(s8)
      f0:	24021403 	li	v0,5123
      f4:	afc20088 	sw	v0,136(s8)
      f8:	24020fe3 	li	v0,4067
      fc:	afc2008c 	sw	v0,140(s8)
     100:	24020c3f 	li	v0,3135
     104:	afc20090 	sw	v0,144(s8)
     108:	24020f59 	li	v0,3929
     10c:	afc20094 	sw	v0,148(s8)
     110:	2402264a 	li	v0,9802
     114:	afc20098 	sw	v0,152(s8)
     118:	24020fb6 	li	v0,4022
     11c:	afc2009c 	sw	v0,156(s8)
     120:	24020bf2 	li	v0,3058
     124:	afc200a0 	sw	v0,160(s8)
     128:	24020bfd 	li	v0,3069
     12c:	afc200a4 	sw	v0,164(s8)
     130:	24021fe7 	li	v0,8167
     134:	afc200a8 	sw	v0,168(s8)
     138:	24020571 	li	v0,1393
     13c:	afc200ac 	sw	v0,172(s8)
     140:	24022108 	li	v0,8456
     144:	afc200b0 	sw	v0,176(s8)
     148:	24021393 	li	v0,5011
     14c:	afc200b4 	sw	v0,180(s8)
     150:	24021f6a 	li	v0,8042
     154:	afc200b8 	sw	v0,184(s8)
     158:	24021855 	li	v0,6229
     15c:	afc200bc 	sw	v0,188(s8)
     160:	24021ccd 	li	v0,7373
     164:	afc200c0 	sw	v0,192(s8)
     168:	24021145 	li	v0,4421
     16c:	afc200c4 	sw	v0,196(s8)
     170:	24021337 	li	v0,4919
     174:	afc200c8 	sw	v0,200(s8)
     178:	24020ec8 	li	v0,3784
     17c:	afc200cc 	sw	v0,204(s8)
     180:	24022159 	li	v0,8537
     184:	afc200d0 	sw	v0,208(s8)
     188:	2402144e 	li	v0,5198
     18c:	afc200d4 	sw	v0,212(s8)
     190:	240210e4 	li	v0,4324
     194:	afc200d8 	sw	v0,216(s8)
     198:	2402207b 	li	v0,8315
     19c:	afc200dc 	sw	v0,220(s8)
     1a0:	24021112 	li	v0,4370
     1a4:	afc200e0 	sw	v0,224(s8)
     1a8:	2402190d 	li	v0,6413
     1ac:	afc200e4 	sw	v0,228(s8)
     1b0:	24020dc6 	li	v0,3526
     1b4:	afc200e8 	sw	v0,232(s8)
     1b8:	240217cb 	li	v0,6091
     1bc:	afc200ec 	sw	v0,236(s8)
     1c0:	24022314 	li	v0,8980
     1c4:	afc200f0 	sw	v0,240(s8)
     1c8:	240226e4 	li	v0,9956
     1cc:	afc200f4 	sw	v0,244(s8)
     1d0:	24020751 	li	v0,1873
     1d4:	afc200f8 	sw	v0,248(s8)
     1d8:	24021ace 	li	v0,6862
     1dc:	afc200fc 	sw	v0,252(s8)
     1e0:	240223d2 	li	v0,9170
     1e4:	afc20100 	sw	v0,256(s8)
     1e8:	24021b54 	li	v0,6996
     1ec:	afc20104 	sw	v0,260(s8)
     1f0:	24021c71 	li	v0,7281
     1f4:	afc20108 	sw	v0,264(s8)
     1f8:	24020901 	li	v0,2305
     1fc:	afc2010c 	sw	v0,268(s8)
     200:	2402039d 	li	v0,925
     204:	afc20110 	sw	v0,272(s8)
     208:	24021bac 	li	v0,7084
     20c:	afc20114 	sw	v0,276(s8)
     210:	240218b7 	li	v0,6327
     214:	afc20118 	sw	v0,280(s8)
     218:	24020150 	li	v0,336
     21c:	afc2011c 	sw	v0,284(s8)
     220:	24021969 	li	v0,6505
     224:	afc20120 	sw	v0,288(s8)
     228:	2402034e 	li	v0,846
     22c:	afc20124 	sw	v0,292(s8)
     230:	240206c1 	li	v0,1729
     234:	afc20128 	sw	v0,296(s8)
     238:	24020521 	li	v0,1313
     23c:	afc2012c 	sw	v0,300(s8)
     240:	240216e1 	li	v0,5857
     244:	afc20130 	sw	v0,304(s8)
     248:	240217ec 	li	v0,6124
     24c:	afc20134 	sw	v0,308(s8)
     250:	24020f37 	li	v0,3895
     254:	afc20138 	sw	v0,312(s8)
     258:	2402256e 	li	v0,9582
     25c:	afc2013c 	sw	v0,316(s8)
     260:	24020221 	li	v0,545
     264:	afc20140 	sw	v0,320(s8)
     268:	2402226e 	li	v0,8814
     26c:	afc20144 	sw	v0,324(s8)
     270:	24020d27 	li	v0,3367
     274:	afc20148 	sw	v0,328(s8)
     278:	2402153a 	li	v0,5434
     27c:	afc2014c 	sw	v0,332(s8)
     280:	2402016c 	li	v0,364
     284:	afc20150 	sw	v0,336(s8)
     288:	24020fcb 	li	v0,4043
     28c:	afc20154 	sw	v0,340(s8)
     290:	24020ea6 	li	v0,3750
     294:	afc20158 	sw	v0,344(s8)
     298:	2402043f 	li	v0,1087
     29c:	afc2015c 	sw	v0,348(s8)
     2a0:	24021a98 	li	v0,6808
     2a4:	afc20160 	sw	v0,352(s8)
     2a8:	24021c6c 	li	v0,7276
     2ac:	afc20164 	sw	v0,356(s8)
     2b0:	24021c0a 	li	v0,7178
     2b4:	afc20168 	sw	v0,360(s8)
     2b8:	2402169c 	li	v0,5788
     2bc:	afc2016c 	sw	v0,364(s8)
     2c0:	24020e00 	li	v0,3584
     2c4:	afc20170 	sw	v0,368(s8)
     2c8:	2402151b 	li	v0,5403
     2cc:	afc20174 	sw	v0,372(s8)
     2d0:	24020a5b 	li	v0,2651
     2d4:	afc20178 	sw	v0,376(s8)
     2d8:	24020ac2 	li	v0,2754
     2dc:	afc2017c 	sw	v0,380(s8)
     2e0:	2402095f 	li	v0,2399
     2e4:	afc20180 	sw	v0,384(s8)
     2e8:	240226cc 	li	v0,9932
     2ec:	afc20184 	sw	v0,388(s8)
     2f0:	240213c4 	li	v0,5060
     2f4:	afc20188 	sw	v0,392(s8)
     2f8:	240225cc 	li	v0,9676
     2fc:	afc2018c 	sw	v0,396(s8)
     300:	24020d28 	li	v0,3368
     304:	afc20190 	sw	v0,400(s8)
     308:	24021e3b 	li	v0,7739
     30c:	afc20194 	sw	v0,404(s8)
     310:	2402000c 	li	v0,12
     314:	afc20198 	sw	v0,408(s8)
     318:	24021852 	li	v0,6226
     31c:	afc2019c 	sw	v0,412(s8)
     320:	2402218a 	li	v0,8586
     324:	afc201a0 	sw	v0,416(s8)
     328:	24021f9e 	li	v0,8094
     32c:	afc201a4 	sw	v0,420(s8)
     330:	24021d73 	li	v0,7539
     334:	afc201a8 	sw	v0,424(s8)
     338:	2402031b 	li	v0,795
     33c:	afc201ac 	sw	v0,428(s8)
     340:	2402023a 	li	v0,570
     344:	afc201b0 	sw	v0,432(s8)
     348:	2402059a 	li	v0,1434
     34c:	afc201b4 	sw	v0,436(s8)
     350:	2402017a 	li	v0,378
     354:	afc201b8 	sw	v0,440(s8)
     358:	24021d2b 	li	v0,7467
     35c:	afc201bc 	sw	v0,444(s8)
     360:	240219c9 	li	v0,6601
     364:	afc201c0 	sw	v0,448(s8)
     368:	24020061 	li	v0,97
     36c:	afc201c4 	sw	v0,452(s8)
     370:	24020b56 	li	v0,2902
     374:	afc201c8 	sw	v0,456(s8)
     378:	24020cf5 	li	v0,3317
     37c:	afc201cc 	sw	v0,460(s8)
     380:	240201ec 	li	v0,492
     384:	afc201d0 	sw	v0,464(s8)
     388:	240219fc 	li	v0,6652
     38c:	afc201d4 	sw	v0,468(s8)
     390:	240202f4 	li	v0,756
     394:	afc201d8 	sw	v0,472(s8)
     398:	24021c85 	li	v0,7301
     39c:	afc201dc 	sw	v0,476(s8)
     3a0:	24020118 	li	v0,280
     3a4:	afc201e0 	sw	v0,480(s8)
     3a8:	240210be 	li	v0,4286
     3ac:	afc201e4 	sw	v0,484(s8)
     3b0:	240224e1 	li	v0,9441
     3b4:	afc201e8 	sw	v0,488(s8)
     3b8:	24020f19 	li	v0,3865
     3bc:	afc201ec 	sw	v0,492(s8)
     3c0:	240225d9 	li	v0,9689
     3c4:	afc201f0 	sw	v0,496(s8)
     3c8:	240220fc 	li	v0,8444
     3cc:	afc201f4 	sw	v0,500(s8)
     3d0:	240219db 	li	v0,6619
     3d4:	afc201f8 	sw	v0,504(s8)
     3d8:	240220f8 	li	v0,8440
     3dc:	afc201fc 	sw	v0,508(s8)
     3e0:	24021279 	li	v0,4729
     3e4:	afc20200 	sw	v0,512(s8)
     3e8:	24021f5f 	li	v0,8031
     3ec:	afc20204 	sw	v0,516(s8)
     3f0:	24021fb5 	li	v0,8117
     3f4:	afc20208 	sw	v0,520(s8)
     3f8:	24021fa1 	li	v0,8097
     3fc:	afc2020c 	sw	v0,524(s8)
     400:	2402168b 	li	v0,5771
     404:	afc20210 	sw	v0,528(s8)
     408:	24021181 	li	v0,4481
     40c:	afc20214 	sw	v0,532(s8)
     410:	240202a3 	li	v0,675
     414:	afc20218 	sw	v0,536(s8)
     418:	240202c5 	li	v0,709
     41c:	afc2021c 	sw	v0,540(s8)
     420:	240222df 	li	v0,8927
     424:	afc20220 	sw	v0,544(s8)
     428:	240211d7 	li	v0,4567
     42c:	afc20224 	sw	v0,548(s8)
     430:	24021eb0 	li	v0,7856
     434:	afc20228 	sw	v0,552(s8)
     438:	24022519 	li	v0,9497
     43c:	afc2022c 	sw	v0,556(s8)
     440:	24020931 	li	v0,2353
     444:	afc20230 	sw	v0,560(s8)
     448:	240211ea 	li	v0,4586
     44c:	afc20234 	sw	v0,564(s8)
     450:	24021b35 	li	v0,6965
     454:	afc20238 	sw	v0,568(s8)
     458:	240214ba 	li	v0,5306
     45c:	afc2023c 	sw	v0,572(s8)
     460:	2402124b 	li	v0,4683
     464:	afc20240 	sw	v0,576(s8)
     468:	2402184b 	li	v0,6219
     46c:	afc20244 	sw	v0,580(s8)
     470:	240221b0 	li	v0,8624
     474:	afc20248 	sw	v0,584(s8)
     478:	240205f8 	li	v0,1528
     47c:	afc2024c 	sw	v0,588(s8)
     480:	24020b37 	li	v0,2871
     484:	afc20250 	sw	v0,592(s8)
     488:	24021664 	li	v0,5732
     48c:	afc20254 	sw	v0,596(s8)
     490:	2402227d 	li	v0,8829
     494:	afc20258 	sw	v0,600(s8)
     498:	2402251f 	li	v0,9503
     49c:	afc2025c 	sw	v0,604(s8)
     4a0:	24020013 	li	v0,19
     4a4:	afc20260 	sw	v0,608(s8)
     4a8:	2402204e 	li	v0,8270
     4ac:	afc20264 	sw	v0,612(s8)
     4b0:	24020d28 	li	v0,3368
     4b4:	afc20268 	sw	v0,616(s8)
     4b8:	240225ec 	li	v0,9708
     4bc:	afc2026c 	sw	v0,620(s8)
     4c0:	24021a3b 	li	v0,6715
     4c4:	afc20270 	sw	v0,624(s8)
     4c8:	240218c4 	li	v0,6340
     4cc:	afc20274 	sw	v0,628(s8)
     4d0:	24021fd5 	li	v0,8149
     4d4:	afc20278 	sw	v0,632(s8)
     4d8:	24021e74 	li	v0,7796
     4dc:	afc2027c 	sw	v0,636(s8)
     4e0:	240202d3 	li	v0,723
     4e4:	afc20280 	sw	v0,640(s8)
     4e8:	24020a3a 	li	v0,2618
     4ec:	afc20284 	sw	v0,644(s8)
     4f0:	240208c5 	li	v0,2245
     4f4:	afc20288 	sw	v0,648(s8)
     4f8:	24020b1e 	li	v0,2846
     4fc:	afc2028c 	sw	v0,652(s8)
     500:	24020d7b 	li	v0,3451
     504:	afc20290 	sw	v0,656(s8)
     508:	24020b69 	li	v0,2921
     50c:	afc20294 	sw	v0,660(s8)
     510:	24020de3 	li	v0,3555
     514:	afc20298 	sw	v0,664(s8)
     518:	2402094b 	li	v0,2379
     51c:	afc2029c 	sw	v0,668(s8)
     520:	24021d40 	li	v0,7488
     524:	afc202a0 	sw	v0,672(s8)
     528:	24021e54 	li	v0,7764
     52c:	afc202a4 	sw	v0,676(s8)
     530:	24022024 	li	v0,8228
     534:	afc202a8 	sw	v0,680(s8)
     538:	24022671 	li	v0,9841
     53c:	afc202ac 	sw	v0,684(s8)
     540:	2402092e 	li	v0,2350
     544:	afc202b0 	sw	v0,688(s8)
     548:	24021449 	li	v0,5193
     54c:	afc202b4 	sw	v0,692(s8)
     550:	240205dc 	li	v0,1500
     554:	afc202b8 	sw	v0,696(s8)
     558:	24021b7a 	li	v0,7034
     55c:	afc202bc 	sw	v0,700(s8)
     560:	24021e54 	li	v0,7764
     564:	afc202c0 	sw	v0,704(s8)
     568:	2402007c 	li	v0,124
     56c:	afc202c4 	sw	v0,708(s8)
     570:	24021332 	li	v0,4914
     574:	afc202c8 	sw	v0,712(s8)
     578:	24021b4b 	li	v0,6987
     57c:	afc202cc 	sw	v0,716(s8)
     580:	240216e0 	li	v0,5856
     584:	afc202d0 	sw	v0,720(s8)
     588:	24020e9f 	li	v0,3743
     58c:	afc202d4 	sw	v0,724(s8)
     590:	2402195b 	li	v0,6491
     594:	afc202d8 	sw	v0,728(s8)
     598:	240208b3 	li	v0,2227
     59c:	afc202dc 	sw	v0,732(s8)
     5a0:	240220ad 	li	v0,8365
     5a4:	afc202e0 	sw	v0,736(s8)
     5a8:	24022683 	li	v0,9859
     5ac:	afc202e4 	sw	v0,740(s8)
     5b0:	24020790 	li	v0,1936
     5b4:	afc202e8 	sw	v0,744(s8)
     5b8:	24020598 	li	v0,1432
     5bc:	afc202ec 	sw	v0,748(s8)
     5c0:	240209f7 	li	v0,2551
     5c4:	afc202f0 	sw	v0,752(s8)
     5c8:	24021925 	li	v0,6437
     5cc:	afc202f4 	sw	v0,756(s8)
     5d0:	2402240c 	li	v0,9228
     5d4:	afc202f8 	sw	v0,760(s8)
     5d8:	24020ccb 	li	v0,3275
     5dc:	afc202fc 	sw	v0,764(s8)
     5e0:	2402151f 	li	v0,5407
     5e4:	afc20300 	sw	v0,768(s8)
     5e8:	240205c2 	li	v0,1474
     5ec:	afc20304 	sw	v0,772(s8)
     5f0:	240217e9 	li	v0,6121
     5f4:	afc20308 	sw	v0,776(s8)
     5f8:	2402229a 	li	v0,8858
     5fc:	afc2030c 	sw	v0,780(s8)
     600:	2402112b 	li	v0,4395
     604:	afc20310 	sw	v0,784(s8)
     608:	2402178d 	li	v0,6029
     60c:	afc20314 	sw	v0,788(s8)
     610:	240204d5 	li	v0,1237
     614:	afc20318 	sw	v0,792(s8)
     618:	2402202b 	li	v0,8235
     61c:	afc2031c 	sw	v0,796(s8)
     620:	24020ed1 	li	v0,3793
     624:	afc20320 	sw	v0,800(s8)
     628:	240216ba 	li	v0,5818
     62c:	afc20324 	sw	v0,804(s8)
     630:	2402114c 	li	v0,4428
     634:	afc20328 	sw	v0,808(s8)
     638:	240217ff 	li	v0,6143
     63c:	afc2032c 	sw	v0,812(s8)
     640:	240203f3 	li	v0,1011
     644:	afc20330 	sw	v0,816(s8)
     648:	24021728 	li	v0,5928
     64c:	afc20334 	sw	v0,820(s8)
     650:	24022539 	li	v0,9529
     654:	afc20338 	sw	v0,824(s8)
     658:	24022248 	li	v0,8776
     65c:	afc2033c 	sw	v0,828(s8)
     660:	24020964 	li	v0,2404
     664:	afc20340 	sw	v0,832(s8)
     668:	2402115b 	li	v0,4443
     66c:	afc20344 	sw	v0,836(s8)
     670:	24021683 	li	v0,5763
     674:	afc20348 	sw	v0,840(s8)
     678:	24021205 	li	v0,4613
     67c:	afc2034c 	sw	v0,844(s8)
     680:	240211ba 	li	v0,4538
     684:	afc20350 	sw	v0,848(s8)
     688:	2402219e 	li	v0,8606
     68c:	afc20354 	sw	v0,852(s8)
     690:	24021ab8 	li	v0,6840
     694:	afc20358 	sw	v0,856(s8)
     698:	24020b58 	li	v0,2904
     69c:	afc2035c 	sw	v0,860(s8)
     6a0:	240212d2 	li	v0,4818
     6a4:	afc20360 	sw	v0,864(s8)
     6a8:	24021408 	li	v0,5128
     6ac:	afc20364 	sw	v0,868(s8)
     6b0:	240202b0 	li	v0,688
     6b4:	afc20368 	sw	v0,872(s8)
     6b8:	24021cc9 	li	v0,7369
     6bc:	afc2036c 	sw	v0,876(s8)
     6c0:	24021eed 	li	v0,7917
     6c4:	afc20370 	sw	v0,880(s8)
     6c8:	240226bd 	li	v0,9917
     6cc:	afc20374 	sw	v0,884(s8)
     6d0:	24021b54 	li	v0,6996
     6d4:	afc20378 	sw	v0,888(s8)
     6d8:	24020cfc 	li	v0,3324
     6dc:	afc2037c 	sw	v0,892(s8)
     6e0:	24021e3f 	li	v0,7743
     6e4:	afc20380 	sw	v0,896(s8)
     6e8:	240224fe 	li	v0,9470
     6ec:	afc20384 	sw	v0,900(s8)
     6f0:	24020887 	li	v0,2183
     6f4:	afc20388 	sw	v0,904(s8)
     6f8:	2402212a 	li	v0,8490
     6fc:	afc2038c 	sw	v0,908(s8)
     700:	2402157b 	li	v0,5499
     704:	afc20390 	sw	v0,912(s8)
     708:	2402262c 	li	v0,9772
     70c:	afc20394 	sw	v0,916(s8)
     710:	24021a45 	li	v0,6725
     714:	afc20398 	sw	v0,920(s8)
     718:	2402160c 	li	v0,5644
     71c:	afc2039c 	sw	v0,924(s8)
     720:	240215d6 	li	v0,5590
     724:	afc203a0 	sw	v0,928(s8)
     728:	24021d51 	li	v0,7505
     72c:	afc203a4 	sw	v0,932(s8)
     730:	24021fcb 	li	v0,8139
     734:	afc203a8 	sw	v0,936(s8)
     738:	24020b8a 	li	v0,2954
     73c:	afc203ac 	sw	v0,940(s8)
     740:	2402263a 	li	v0,9786
     744:	afc203b0 	sw	v0,944(s8)
     748:	24021df5 	li	v0,7669
     74c:	afc203b4 	sw	v0,948(s8)
     750:	24021f92 	li	v0,8082
     754:	afc203b8 	sw	v0,952(s8)
     758:	2402215e 	li	v0,8542
     75c:	afc203bc 	sw	v0,956(s8)
     760:	24022110 	li	v0,8464
     764:	afc203c0 	sw	v0,960(s8)
     768:	240200c5 	li	v0,197
     76c:	afc203c4 	sw	v0,964(s8)
     770:	24022523 	li	v0,9507
     774:	afc203c8 	sw	v0,968(s8)
     778:	2402248b 	li	v0,9355
     77c:	afc203cc 	sw	v0,972(s8)
     780:	24022264 	li	v0,8804
     784:	afc203d0 	sw	v0,976(s8)
     788:	240218cc 	li	v0,6348
     78c:	afc203d4 	sw	v0,980(s8)
     790:	240221a3 	li	v0,8611
     794:	afc203d8 	sw	v0,984(s8)
     798:	24020e26 	li	v0,3622
     79c:	afc203dc 	sw	v0,988(s8)
     7a0:	24021e94 	li	v0,7828
     7a4:	afc203e0 	sw	v0,992(s8)
     7a8:	24022453 	li	v0,9299
     7ac:	afc203e4 	sw	v0,996(s8)
     7b0:	24021caf 	li	v0,7343
     7b4:	afc203e8 	sw	v0,1000(s8)
     7b8:	24021672 	li	v0,5746
     7bc:	afc203ec 	sw	v0,1004(s8)
     7c0:	240215c0 	li	v0,5568
     7c4:	afc203f0 	sw	v0,1008(s8)
     7c8:	240210f4 	li	v0,4340
     7cc:	afc203f4 	sw	v0,1012(s8)
     7d0:	2402152e 	li	v0,5422
     7d4:	afc203f8 	sw	v0,1016(s8)
     7d8:	24020cef 	li	v0,3311
     7dc:	afc203fc 	sw	v0,1020(s8)
     7e0:	24020ee2 	li	v0,3810
     7e4:	afc20400 	sw	v0,1024(s8)
     7e8:	24021db5 	li	v0,7605
     7ec:	afc20404 	sw	v0,1028(s8)
     7f0:	24020709 	li	v0,1801
     7f4:	afc20408 	sw	v0,1032(s8)
     7f8:	2402161d 	li	v0,5661
     7fc:	afc2040c 	sw	v0,1036(s8)
     800:	24020e92 	li	v0,3730
     804:	afc20410 	sw	v0,1040(s8)
     808:	2402130e 	li	v0,4878
     80c:	afc20414 	sw	v0,1044(s8)
     810:	24020519 	li	v0,1305
     814:	afc20418 	sw	v0,1048(s8)
     818:	24022468 	li	v0,9320
     81c:	afc2041c 	sw	v0,1052(s8)
     820:	24022220 	li	v0,8736
     824:	afc20420 	sw	v0,1056(s8)
     828:	240224e4 	li	v0,9444
     82c:	afc20424 	sw	v0,1060(s8)
     830:	240221b2 	li	v0,8626
     834:	afc20428 	sw	v0,1064(s8)
     838:	2402214a 	li	v0,8522
     83c:	afc2042c 	sw	v0,1068(s8)
     840:	24020d89 	li	v0,3465
     844:	afc20430 	sw	v0,1072(s8)
     848:	24021a34 	li	v0,6708
     84c:	afc20434 	sw	v0,1076(s8)
     850:	24020d58 	li	v0,3416
     854:	afc20438 	sw	v0,1080(s8)
     858:	2402205a 	li	v0,8282
     85c:	afc2043c 	sw	v0,1084(s8)
     860:	24020cba 	li	v0,3258
     864:	afc20440 	sw	v0,1088(s8)
     868:	24020b6c 	li	v0,2924
     86c:	afc20444 	sw	v0,1092(s8)
     870:	24021dd5 	li	v0,7637
     874:	afc20448 	sw	v0,1096(s8)
     878:	2402080e 	li	v0,2062
     87c:	afc2044c 	sw	v0,1100(s8)
     880:	240215f8 	li	v0,5624
     884:	afc20450 	sw	v0,1104(s8)
     888:	24020a28 	li	v0,2600
     88c:	afc20454 	sw	v0,1108(s8)
     890:	240207f4 	li	v0,2036
     894:	afc20458 	sw	v0,1112(s8)
     898:	24020d7c 	li	v0,3452
     89c:	afc2045c 	sw	v0,1116(s8)
     8a0:	2402076b 	li	v0,1899
     8a4:	afc20460 	sw	v0,1120(s8)
     8a8:	240224a3 	li	v0,9379
     8ac:	afc20464 	sw	v0,1124(s8)
     8b0:	240215ae 	li	v0,5550
     8b4:	afc20468 	sw	v0,1128(s8)
     8b8:	24021d2c 	li	v0,7468
     8bc:	afc2046c 	sw	v0,1132(s8)
     8c0:	24020047 	li	v0,71
     8c4:	afc20470 	sw	v0,1136(s8)
     8c8:	240203cd 	li	v0,973
     8cc:	afc20474 	sw	v0,1140(s8)
     8d0:	24021bdb 	li	v0,7131
     8d4:	afc20478 	sw	v0,1144(s8)
     8d8:	24020f29 	li	v0,3881
     8dc:	afc2047c 	sw	v0,1148(s8)
     8e0:	24021342 	li	v0,4930
     8e4:	afc20480 	sw	v0,1152(s8)
     8e8:	240222e5 	li	v0,8933
     8ec:	afc20484 	sw	v0,1156(s8)
     8f0:	24021706 	li	v0,5894
     8f4:	afc20488 	sw	v0,1160(s8)
     8f8:	240221d4 	li	v0,8660
     8fc:	afc2048c 	sw	v0,1164(s8)
     900:	240200a3 	li	v0,163
     904:	afc20490 	sw	v0,1168(s8)
     908:	24021c1f 	li	v0,7199
     90c:	afc20494 	sw	v0,1172(s8)
     910:	24021f2d 	li	v0,7981
     914:	afc20498 	sw	v0,1176(s8)
     918:	240222c3 	li	v0,8899
     91c:	afc2049c 	sw	v0,1180(s8)
     920:	24020bb4 	li	v0,2996
     924:	afc204a0 	sw	v0,1184(s8)
     928:	24020b8f 	li	v0,2959
     92c:	afc204a4 	sw	v0,1188(s8)
     930:	24020ebd 	li	v0,3773
     934:	afc204a8 	sw	v0,1192(s8)
     938:	24020afd 	li	v0,2813
     93c:	afc204ac 	sw	v0,1196(s8)
     940:	240225c4 	li	v0,9668
     944:	afc204b0 	sw	v0,1200(s8)
     948:	24021c16 	li	v0,7190
     94c:	afc204b4 	sw	v0,1204(s8)
     950:	24020447 	li	v0,1095
     954:	afc204b8 	sw	v0,1208(s8)
     958:	24020b6e 	li	v0,2926
     95c:	afc204bc 	sw	v0,1212(s8)
     960:	24021942 	li	v0,6466
     964:	afc204c0 	sw	v0,1216(s8)
     968:	240213dc 	li	v0,5084
     96c:	afc204c4 	sw	v0,1220(s8)
     970:	2402053c 	li	v0,1340
     974:	afc204c8 	sw	v0,1224(s8)
     978:	2402082a 	li	v0,2090
     97c:	afc204cc 	sw	v0,1228(s8)
     980:	24021e04 	li	v0,7684
     984:	afc204d0 	sw	v0,1232(s8)
     988:	24020d30 	li	v0,3376
     98c:	afc204d4 	sw	v0,1236(s8)
     990:	240215a6 	li	v0,5542
     994:	afc204d8 	sw	v0,1240(s8)
     998:	24021730 	li	v0,5936
     99c:	afc204dc 	sw	v0,1244(s8)
     9a0:	24022393 	li	v0,9107
     9a4:	afc204e0 	sw	v0,1248(s8)
     9a8:	24021d15 	li	v0,7445
     9ac:	afc204e4 	sw	v0,1252(s8)
     9b0:	2402261c 	li	v0,9756
     9b4:	afc204e8 	sw	v0,1256(s8)
     9b8:	240223db 	li	v0,9179
     9bc:	afc204ec 	sw	v0,1260(s8)
     9c0:	240220e2 	li	v0,8418
     9c4:	afc204f0 	sw	v0,1264(s8)
     9c8:	24021ae7 	li	v0,6887
     9cc:	afc204f4 	sw	v0,1268(s8)
     9d0:	240224c4 	li	v0,9412
     9d4:	afc204f8 	sw	v0,1272(s8)
     9d8:	24020d14 	li	v0,3348
     9dc:	afc204fc 	sw	v0,1276(s8)
     9e0:	2402087c 	li	v0,2172
     9e4:	afc20500 	sw	v0,1280(s8)
     9e8:	2402067b 	li	v0,1659
     9ec:	afc20504 	sw	v0,1284(s8)
     9f0:	240207d9 	li	v0,2009
     9f4:	afc20508 	sw	v0,1288(s8)
     9f8:	24020920 	li	v0,2336
     9fc:	afc2050c 	sw	v0,1292(s8)
     a00:	2402145a 	li	v0,5210
     a04:	afc20510 	sw	v0,1296(s8)
     a08:	240218c6 	li	v0,6342
     a0c:	afc20514 	sw	v0,1300(s8)
     a10:	24021da3 	li	v0,7587
     a14:	afc20518 	sw	v0,1304(s8)
     a18:	2402200e 	li	v0,8206
     a1c:	afc2051c 	sw	v0,1308(s8)
     a20:	24022455 	li	v0,9301
     a24:	afc20520 	sw	v0,1312(s8)
     a28:	24021e21 	li	v0,7713
     a2c:	afc20524 	sw	v0,1316(s8)
     a30:	24021ccc 	li	v0,7372
     a34:	afc20528 	sw	v0,1320(s8)
     a38:	240214c9 	li	v0,5321
     a3c:	afc2052c 	sw	v0,1324(s8)
     a40:	240204e7 	li	v0,1255
     a44:	afc20530 	sw	v0,1328(s8)
     a48:	240212d3 	li	v0,4819
     a4c:	afc20534 	sw	v0,1332(s8)
     a50:	240211f7 	li	v0,4599
     a54:	afc20538 	sw	v0,1336(s8)
     a58:	24021e29 	li	v0,7721
     a5c:	afc2053c 	sw	v0,1340(s8)
     a60:	240226b0 	li	v0,9904
     a64:	afc20540 	sw	v0,1344(s8)
     a68:	24021733 	li	v0,5939
     a6c:	afc20544 	sw	v0,1348(s8)
     a70:	24022653 	li	v0,9811
     a74:	afc20548 	sw	v0,1352(s8)
     a78:	24020f64 	li	v0,3940
     a7c:	afc2054c 	sw	v0,1356(s8)
     a80:	24021623 	li	v0,5667
     a84:	afc20550 	sw	v0,1360(s8)
     a88:	240206a9 	li	v0,1705
     a8c:	afc20554 	sw	v0,1364(s8)
     a90:	24021854 	li	v0,6228
     a94:	afc20558 	sw	v0,1368(s8)
     a98:	24020467 	li	v0,1127
     a9c:	afc2055c 	sw	v0,1372(s8)
     aa0:	240223be 	li	v0,9150
     aa4:	afc20560 	sw	v0,1376(s8)
     aa8:	24021760 	li	v0,5984
     aac:	afc20564 	sw	v0,1380(s8)
     ab0:	24021a02 	li	v0,6658
     ab4:	afc20568 	sw	v0,1384(s8)
     ab8:	24020f50 	li	v0,3920
     abc:	afc2056c 	sw	v0,1388(s8)
     ac0:	24022408 	li	v0,9224
     ac4:	afc20570 	sw	v0,1392(s8)
     ac8:	24020976 	li	v0,2422
     acc:	afc20574 	sw	v0,1396(s8)
     ad0:	24021c65 	li	v0,7269
     ad4:	afc20578 	sw	v0,1400(s8)
     ad8:	24020574 	li	v0,1396
     adc:	afc2057c 	sw	v0,1404(s8)
     ae0:	24020ff1 	li	v0,4081
     ae4:	afc20580 	sw	v0,1408(s8)
     ae8:	240215fe 	li	v0,5630
     aec:	afc20584 	sw	v0,1412(s8)
     af0:	24020054 	li	v0,84
     af4:	afc20588 	sw	v0,1416(s8)
     af8:	2402244c 	li	v0,9292
     afc:	afc2058c 	sw	v0,1420(s8)
     b00:	240207b4 	li	v0,1972
     b04:	afc20590 	sw	v0,1424(s8)
     b08:	24021df8 	li	v0,7672
     b0c:	afc20594 	sw	v0,1428(s8)
     b10:	24020f0a 	li	v0,3850
     b14:	afc20598 	sw	v0,1432(s8)
     b18:	24021dc9 	li	v0,7625
     b1c:	afc2059c 	sw	v0,1436(s8)
     b20:	24021509 	li	v0,5385
     b24:	afc205a0 	sw	v0,1440(s8)
     b28:	240204c6 	li	v0,1222
     b2c:	afc205a4 	sw	v0,1444(s8)
     b30:	24022453 	li	v0,9299
     b34:	afc205a8 	sw	v0,1448(s8)
     b38:	240219f0 	li	v0,6640
     b3c:	afc205ac 	sw	v0,1452(s8)
     b40:	2402179a 	li	v0,6042
     b44:	afc205b0 	sw	v0,1456(s8)
     b48:	24020f3a 	li	v0,3898
     b4c:	afc205b4 	sw	v0,1460(s8)
     b50:	240202c9 	li	v0,713
     b54:	afc205b8 	sw	v0,1464(s8)
     b58:	240208fa 	li	v0,2298
     b5c:	afc205bc 	sw	v0,1468(s8)
     b60:	2402182e 	li	v0,6190
     b64:	afc205c0 	sw	v0,1472(s8)
     b68:	2402020c 	li	v0,524
     b6c:	afc205c4 	sw	v0,1476(s8)
     b70:	24020a1e 	li	v0,2590
     b74:	afc205c8 	sw	v0,1480(s8)
     b78:	24022011 	li	v0,8209
     b7c:	afc205cc 	sw	v0,1484(s8)
     b80:	24022185 	li	v0,8581
     b84:	afc205d0 	sw	v0,1488(s8)
     b88:	24022273 	li	v0,8819
     b8c:	afc205d4 	sw	v0,1492(s8)
     b90:	24022478 	li	v0,9336
     b94:	afc205d8 	sw	v0,1496(s8)
     b98:	24021e34 	li	v0,7732
     b9c:	afc205dc 	sw	v0,1500(s8)
     ba0:	24020483 	li	v0,1155
     ba4:	afc205e0 	sw	v0,1504(s8)
     ba8:	2402176a 	li	v0,5994
     bac:	afc205e4 	sw	v0,1508(s8)
     bb0:	24021f44 	li	v0,8004
     bb4:	afc205e8 	sw	v0,1512(s8)
     bb8:	2402017b 	li	v0,379
     bbc:	afc205ec 	sw	v0,1516(s8)
     bc0:	240212a1 	li	v0,4769
     bc4:	afc205f0 	sw	v0,1520(s8)
     bc8:	24021499 	li	v0,5273
     bcc:	afc205f4 	sw	v0,1524(s8)
     bd0:	240206f0 	li	v0,1776
     bd4:	afc205f8 	sw	v0,1528(s8)
     bd8:	24022292 	li	v0,8850
     bdc:	afc205fc 	sw	v0,1532(s8)
     be0:	24021c57 	li	v0,7255
     be4:	afc20600 	sw	v0,1536(s8)
     be8:	24020744 	li	v0,1860
     bec:	afc20604 	sw	v0,1540(s8)
     bf0:	24021fce 	li	v0,8142
     bf4:	afc20608 	sw	v0,1544(s8)
     bf8:	240215cb 	li	v0,5579
     bfc:	afc2060c 	sw	v0,1548(s8)
     c00:	240216fc 	li	v0,5884
     c04:	afc20610 	sw	v0,1552(s8)
     c08:	240207c9 	li	v0,1993
     c0c:	afc20614 	sw	v0,1556(s8)
     c10:	24020c85 	li	v0,3205
     c14:	afc20618 	sw	v0,1560(s8)
     c18:	24021dc5 	li	v0,7621
     c1c:	afc2061c 	sw	v0,1564(s8)
     c20:	2402255f 	li	v0,9567
     c24:	afc20620 	sw	v0,1568(s8)
     c28:	240209c8 	li	v0,2504
     c2c:	afc20624 	sw	v0,1572(s8)
     c30:	24020265 	li	v0,613
     c34:	afc20628 	sw	v0,1576(s8)
     c38:	240207a9 	li	v0,1961
     c3c:	afc2062c 	sw	v0,1580(s8)
     c40:	24020ac2 	li	v0,2754
     c44:	afc20630 	sw	v0,1584(s8)
     c48:	2402052e 	li	v0,1326
     c4c:	afc20634 	sw	v0,1588(s8)
     c50:	240210a3 	li	v0,4259
     c54:	afc20638 	sw	v0,1592(s8)
     c58:	240222f0 	li	v0,8944
     c5c:	afc2063c 	sw	v0,1596(s8)
     c60:	2402200a 	li	v0,8202
     c64:	afc20640 	sw	v0,1600(s8)
     c68:	24020c82 	li	v0,3202
     c6c:	afc20644 	sw	v0,1604(s8)
     c70:	24020db2 	li	v0,3506
     c74:	afc20648 	sw	v0,1608(s8)
     c78:	24021a80 	li	v0,6784
     c7c:	afc2064c 	sw	v0,1612(s8)
     c80:	240207e5 	li	v0,2021
     c84:	afc20650 	sw	v0,1616(s8)
     c88:	24020b1a 	li	v0,2842
     c8c:	afc20654 	sw	v0,1620(s8)
     c90:	24020364 	li	v0,868
     c94:	afc20658 	sw	v0,1624(s8)
     c98:	24022538 	li	v0,9528
     c9c:	afc2065c 	sw	v0,1628(s8)
     ca0:	24021445 	li	v0,5189
     ca4:	afc20660 	sw	v0,1632(s8)
     ca8:	240222a8 	li	v0,8872
     cac:	afc20664 	sw	v0,1636(s8)
     cb0:	240226b4 	li	v0,9908
     cb4:	afc20668 	sw	v0,1640(s8)
     cb8:	240226e6 	li	v0,9958
     cbc:	afc2066c 	sw	v0,1644(s8)
     cc0:	240201f2 	li	v0,498
     cc4:	afc20670 	sw	v0,1648(s8)
     cc8:	24021f64 	li	v0,8036
     ccc:	afc20674 	sw	v0,1652(s8)
     cd0:	24022268 	li	v0,8808
     cd4:	afc20678 	sw	v0,1656(s8)
     cd8:	24021e49 	li	v0,7753
     cdc:	afc2067c 	sw	v0,1660(s8)
     ce0:	24021868 	li	v0,6248
     ce4:	afc20680 	sw	v0,1664(s8)
     ce8:	24020ce7 	li	v0,3303
     cec:	afc20684 	sw	v0,1668(s8)
     cf0:	24020d05 	li	v0,3333
     cf4:	afc20688 	sw	v0,1672(s8)
     cf8:	24020855 	li	v0,2133
     cfc:	afc2068c 	sw	v0,1676(s8)
     d00:	24020670 	li	v0,1648
     d04:	afc20690 	sw	v0,1680(s8)
     d08:	24020b4a 	li	v0,2890
     d0c:	afc20694 	sw	v0,1684(s8)
     d10:	2402261a 	li	v0,9754
     d14:	afc20698 	sw	v0,1688(s8)
     d18:	24021d8f 	li	v0,7567
     d1c:	afc2069c 	sw	v0,1692(s8)
     d20:	240206d2 	li	v0,1746
     d24:	afc206a0 	sw	v0,1696(s8)
     d28:	24020170 	li	v0,368
     d2c:	afc206a4 	sw	v0,1700(s8)
     d30:	24022539 	li	v0,9529
     d34:	afc206a8 	sw	v0,1704(s8)
     d38:	24021194 	li	v0,4500
     d3c:	afc206ac 	sw	v0,1708(s8)
     d40:	24021f6e 	li	v0,8046
     d44:	afc206b0 	sw	v0,1712(s8)
     d48:	24020ecc 	li	v0,3788
     d4c:	afc206b4 	sw	v0,1716(s8)
     d50:	24022645 	li	v0,9797
     d54:	afc206b8 	sw	v0,1720(s8)
     d58:	24021869 	li	v0,6249
     d5c:	afc206bc 	sw	v0,1724(s8)
     d60:	24021b4e 	li	v0,6990
     d64:	afc206c0 	sw	v0,1728(s8)
     d68:	24020ce7 	li	v0,3303
     d6c:	afc206c4 	sw	v0,1732(s8)
     d70:	24020bd9 	li	v0,3033
     d74:	afc206c8 	sw	v0,1736(s8)
     d78:	240214f3 	li	v0,5363
     d7c:	afc206cc 	sw	v0,1740(s8)
     d80:	240209c1 	li	v0,2497
     d84:	afc206d0 	sw	v0,1744(s8)
     d88:	240200fd 	li	v0,253
     d8c:	afc206d4 	sw	v0,1748(s8)
     d90:	2402131c 	li	v0,4892
     d94:	afc206d8 	sw	v0,1752(s8)
     d98:	24021e06 	li	v0,7686
     d9c:	afc206dc 	sw	v0,1756(s8)
     da0:	240223a5 	li	v0,9125
     da4:	afc206e0 	sw	v0,1760(s8)
     da8:	24020480 	li	v0,1152
     dac:	afc206e4 	sw	v0,1764(s8)
     db0:	24020f9c 	li	v0,3996
     db4:	afc206e8 	sw	v0,1768(s8)
     db8:	24021757 	li	v0,5975
     dbc:	afc206ec 	sw	v0,1772(s8)
     dc0:	240223e4 	li	v0,9188
     dc4:	afc206f0 	sw	v0,1776(s8)
     dc8:	240223c5 	li	v0,9157
     dcc:	afc206f4 	sw	v0,1780(s8)
     dd0:	24020e91 	li	v0,3729
     dd4:	afc206f8 	sw	v0,1784(s8)
     dd8:	2402153c 	li	v0,5436
     ddc:	afc206fc 	sw	v0,1788(s8)
     de0:	2402099c 	li	v0,2460
     de4:	afc20700 	sw	v0,1792(s8)
     de8:	24020d56 	li	v0,3414
     dec:	afc20704 	sw	v0,1796(s8)
     df0:	24020f51 	li	v0,3921
     df4:	afc20708 	sw	v0,1800(s8)
     df8:	240201cc 	li	v0,460
     dfc:	afc2070c 	sw	v0,1804(s8)
     e00:	240218a0 	li	v0,6304
     e04:	afc20710 	sw	v0,1808(s8)
     e08:	2402001c 	li	v0,28
     e0c:	afc20714 	sw	v0,1812(s8)
     e10:	24021f5b 	li	v0,8027
     e14:	afc20718 	sw	v0,1816(s8)
     e18:	24021f72 	li	v0,8050
     e1c:	afc2071c 	sw	v0,1820(s8)
     e20:	24021a5c 	li	v0,6748
     e24:	afc20720 	sw	v0,1824(s8)
     e28:	24021d84 	li	v0,7556
     e2c:	afc20724 	sw	v0,1828(s8)
     e30:	240222c6 	li	v0,8902
     e34:	afc20728 	sw	v0,1832(s8)
     e38:	240212ba 	li	v0,4794
     e3c:	afc2072c 	sw	v0,1836(s8)
     e40:	24021e11 	li	v0,7697
     e44:	afc20730 	sw	v0,1840(s8)
     e48:	240221fb 	li	v0,8699
     e4c:	afc20734 	sw	v0,1844(s8)
     e50:	24020413 	li	v0,1043
     e54:	afc20738 	sw	v0,1848(s8)
     e58:	2402040f 	li	v0,1039
     e5c:	afc2073c 	sw	v0,1852(s8)
     e60:	240207d2 	li	v0,2002
     e64:	afc20740 	sw	v0,1856(s8)
     e68:	240201ac 	li	v0,428
     e6c:	afc20744 	sw	v0,1860(s8)
     e70:	24021903 	li	v0,6403
     e74:	afc20748 	sw	v0,1864(s8)
     e78:	24021194 	li	v0,4500
     e7c:	afc2074c 	sw	v0,1868(s8)
     e80:	240202a9 	li	v0,681
     e84:	afc20750 	sw	v0,1872(s8)
     e88:	24021ddf 	li	v0,7647
     e8c:	afc20754 	sw	v0,1876(s8)
     e90:	2402215a 	li	v0,8538
     e94:	afc20758 	sw	v0,1880(s8)
     e98:	2402180f 	li	v0,6159
     e9c:	afc2075c 	sw	v0,1884(s8)
     ea0:	2402141f 	li	v0,5151
     ea4:	afc20760 	sw	v0,1888(s8)
     ea8:	240209e7 	li	v0,2535
     eac:	afc20764 	sw	v0,1892(s8)
     eb0:	24020856 	li	v0,2134
     eb4:	afc20768 	sw	v0,1896(s8)
     eb8:	240210f3 	li	v0,4339
     ebc:	afc2076c 	sw	v0,1900(s8)
     ec0:	2402069c 	li	v0,1692
     ec4:	afc20770 	sw	v0,1904(s8)
     ec8:	240208a7 	li	v0,2215
     ecc:	afc20774 	sw	v0,1908(s8)
     ed0:	240217ef 	li	v0,6127
     ed4:	afc20778 	sw	v0,1912(s8)
     ed8:	240201f8 	li	v0,504
     edc:	afc2077c 	sw	v0,1916(s8)
     ee0:	240215fd 	li	v0,5629
     ee4:	afc20780 	sw	v0,1920(s8)
     ee8:	24020031 	li	v0,49
     eec:	afc20784 	sw	v0,1924(s8)
     ef0:	240203c4 	li	v0,964
     ef4:	afc20788 	sw	v0,1928(s8)
     ef8:	2402205d 	li	v0,8285
     efc:	afc2078c 	sw	v0,1932(s8)
     f00:	2402191d 	li	v0,6429
     f04:	afc20790 	sw	v0,1936(s8)
     f08:	240214df 	li	v0,5343
     f0c:	afc20794 	sw	v0,1940(s8)
     f10:	240218bf 	li	v0,6335
     f14:	afc20798 	sw	v0,1944(s8)
     f18:	24020c69 	li	v0,3177
     f1c:	afc2079c 	sw	v0,1948(s8)
     f20:	24020b54 	li	v0,2900
     f24:	afc207a0 	sw	v0,1952(s8)
     f28:	24021476 	li	v0,5238
     f2c:	afc207a4 	sw	v0,1956(s8)
     f30:	24021f23 	li	v0,7971
     f34:	afc207a8 	sw	v0,1960(s8)
     f38:	24021b25 	li	v0,6949
     f3c:	afc207ac 	sw	v0,1964(s8)
     f40:	24020121 	li	v0,289
     f44:	afc207b0 	sw	v0,1968(s8)
     f48:	240214f7 	li	v0,5367
     f4c:	afc207b4 	sw	v0,1972(s8)
     f50:	24021f34 	li	v0,7988
     f54:	afc207b8 	sw	v0,1976(s8)
     f58:	240208f4 	li	v0,2292
     f5c:	afc207bc 	sw	v0,1980(s8)
     f60:	240216a3 	li	v0,5795
     f64:	afc207c0 	sw	v0,1984(s8)
     f68:	240202e7 	li	v0,743
     f6c:	afc207c4 	sw	v0,1988(s8)
     f70:	24020c48 	li	v0,3144
     f74:	afc207c8 	sw	v0,1992(s8)
     f78:	24020b0d 	li	v0,2829
     f7c:	afc207cc 	sw	v0,1996(s8)
     f80:	240220c6 	li	v0,8390
     f84:	afc207d0 	sw	v0,2000(s8)
     f88:	24020692 	li	v0,1682
     f8c:	afc207d4 	sw	v0,2004(s8)
     f90:	240214dc 	li	v0,5340
     f94:	afc207d8 	sw	v0,2008(s8)
     f98:	24020dd5 	li	v0,3541
     f9c:	afc207dc 	sw	v0,2012(s8)
     fa0:	24020239 	li	v0,569
     fa4:	afc207e0 	sw	v0,2016(s8)
     fa8:	24020ef2 	li	v0,3826
     fac:	afc207e4 	sw	v0,2020(s8)
     fb0:	24021088 	li	v0,4232
     fb4:	afc207e8 	sw	v0,2024(s8)
     fb8:	240208d5 	li	v0,2261
     fbc:	afc207ec 	sw	v0,2028(s8)
     fc0:	2402179a 	li	v0,6042
     fc4:	afc207f0 	sw	v0,2032(s8)
     fc8:	24020168 	li	v0,360
     fcc:	afc207f4 	sw	v0,2036(s8)
     fd0:	2402239d 	li	v0,9117
     fd4:	afc207f8 	sw	v0,2040(s8)
     fd8:	24021f57 	li	v0,8023
     fdc:	afc207fc 	sw	v0,2044(s8)
     fe0:	24021a69 	li	v0,6761
     fe4:	afc20800 	sw	v0,2048(s8)
     fe8:	24020051 	li	v0,81
     fec:	afc20804 	sw	v0,2052(s8)
     ff0:	240218a5 	li	v0,6309
     ff4:	afc20808 	sw	v0,2056(s8)
     ff8:	24020c76 	li	v0,3190
     ffc:	afc2080c 	sw	v0,2060(s8)
    1000:	24021531 	li	v0,5425
    1004:	afc20810 	sw	v0,2064(s8)
    1008:	24022324 	li	v0,8996
    100c:	afc20814 	sw	v0,2068(s8)
    1010:	240218df 	li	v0,6367
    1014:	afc20818 	sw	v0,2072(s8)
    1018:	24021245 	li	v0,4677
    101c:	afc2081c 	sw	v0,2076(s8)
    1020:	2402108a 	li	v0,4234
    1024:	afc20820 	sw	v0,2080(s8)
    1028:	240202b2 	li	v0,690
    102c:	afc20824 	sw	v0,2084(s8)
    1030:	2402065a 	li	v0,1626
    1034:	afc20828 	sw	v0,2088(s8)
    1038:	240211ac 	li	v0,4524
    103c:	afc2082c 	sw	v0,2092(s8)
    1040:	240217a9 	li	v0,6057
    1044:	afc20830 	sw	v0,2096(s8)
    1048:	2402258e 	li	v0,9614
    104c:	afc20834 	sw	v0,2100(s8)
    1050:	24020c60 	li	v0,3168
    1054:	afc20838 	sw	v0,2104(s8)
    1058:	2402200d 	li	v0,8205
    105c:	afc2083c 	sw	v0,2108(s8)
    1060:	24020166 	li	v0,358
    1064:	afc20840 	sw	v0,2112(s8)
    1068:	240218a8 	li	v0,6312
    106c:	afc20844 	sw	v0,2116(s8)
    1070:	24021cda 	li	v0,7386
    1074:	afc20848 	sw	v0,2120(s8)
    1078:	240213ec 	li	v0,5100
    107c:	afc2084c 	sw	v0,2124(s8)
    1080:	240210fa 	li	v0,4346
    1084:	afc20850 	sw	v0,2128(s8)
    1088:	24020aa6 	li	v0,2726
    108c:	afc20854 	sw	v0,2132(s8)
    1090:	24021382 	li	v0,4994
    1094:	afc20858 	sw	v0,2136(s8)
    1098:	24021334 	li	v0,4916
    109c:	afc2085c 	sw	v0,2140(s8)
    10a0:	24021998 	li	v0,6552
    10a4:	afc20860 	sw	v0,2144(s8)
    10a8:	240215ca 	li	v0,5578
    10ac:	afc20864 	sw	v0,2148(s8)
    10b0:	24020dc9 	li	v0,3529
    10b4:	afc20868 	sw	v0,2152(s8)
    10b8:	240222f2 	li	v0,8946
    10bc:	afc2086c 	sw	v0,2156(s8)
    10c0:	240208f2 	li	v0,2290
    10c4:	afc20870 	sw	v0,2160(s8)
    10c8:	24020a57 	li	v0,2647
    10cc:	afc20874 	sw	v0,2164(s8)
    10d0:	24021b3a 	li	v0,6970
    10d4:	afc20878 	sw	v0,2168(s8)
    10d8:	2402235b 	li	v0,9051
    10dc:	afc2087c 	sw	v0,2172(s8)
    10e0:	24022378 	li	v0,9080
    10e4:	afc20880 	sw	v0,2176(s8)
    10e8:	2402259f 	li	v0,9631
    10ec:	afc20884 	sw	v0,2180(s8)
    10f0:	24022191 	li	v0,8593
    10f4:	afc20888 	sw	v0,2184(s8)
    10f8:	24020359 	li	v0,857
    10fc:	afc2088c 	sw	v0,2188(s8)
    1100:	240221b3 	li	v0,8627
    1104:	afc20890 	sw	v0,2192(s8)
    1108:	24020520 	li	v0,1312
    110c:	afc20894 	sw	v0,2196(s8)
    1110:	2402075e 	li	v0,1886
    1114:	afc20898 	sw	v0,2200(s8)
    1118:	240223fe 	li	v0,9214
    111c:	afc2089c 	sw	v0,2204(s8)
    1120:	240220a3 	li	v0,8355
    1124:	afc208a0 	sw	v0,2208(s8)
    1128:	24020db8 	li	v0,3512
    112c:	afc208a4 	sw	v0,2212(s8)
    1130:	2402005a 	li	v0,90
    1134:	afc208a8 	sw	v0,2216(s8)
    1138:	2402113c 	li	v0,4412
    113c:	afc208ac 	sw	v0,2220(s8)
    1140:	24022507 	li	v0,9479
    1144:	afc208b0 	sw	v0,2224(s8)
    1148:	2402258a 	li	v0,9610
    114c:	afc208b4 	sw	v0,2228(s8)
    1150:	24022309 	li	v0,8969
    1154:	afc208b8 	sw	v0,2232(s8)
    1158:	2402182d 	li	v0,6189
    115c:	afc208bc 	sw	v0,2236(s8)
    1160:	240208e2 	li	v0,2274
    1164:	afc208c0 	sw	v0,2240(s8)
    1168:	240218d3 	li	v0,6355
    116c:	afc208c4 	sw	v0,2244(s8)
    1170:	24021dd9 	li	v0,7641
    1174:	afc208c8 	sw	v0,2248(s8)
    1178:	240219dc 	li	v0,6620
    117c:	afc208cc 	sw	v0,2252(s8)
    1180:	24021539 	li	v0,5433
    1184:	afc208d0 	sw	v0,2256(s8)
    1188:	2402231b 	li	v0,8987
    118c:	afc208d4 	sw	v0,2260(s8)
    1190:	24021ed0 	li	v0,7888
    1194:	afc208d8 	sw	v0,2264(s8)
    1198:	24022092 	li	v0,8338
    119c:	afc208dc 	sw	v0,2268(s8)
    11a0:	240211d6 	li	v0,4566
    11a4:	afc208e0 	sw	v0,2272(s8)
    11a8:	24021e5a 	li	v0,7770
    11ac:	afc208e4 	sw	v0,2276(s8)
    11b0:	24021c74 	li	v0,7284
    11b4:	afc208e8 	sw	v0,2280(s8)
    11b8:	24021ac8 	li	v0,6856
    11bc:	afc208ec 	sw	v0,2284(s8)
    11c0:	240201a1 	li	v0,417
    11c4:	afc208f0 	sw	v0,2288(s8)
    11c8:	2402025e 	li	v0,606
    11cc:	afc208f4 	sw	v0,2292(s8)
    11d0:	240208d4 	li	v0,2260
    11d4:	afc208f8 	sw	v0,2296(s8)
    11d8:	240216d9 	li	v0,5849
    11dc:	afc208fc 	sw	v0,2300(s8)
    11e0:	240200ed 	li	v0,237
    11e4:	afc20900 	sw	v0,2304(s8)
    11e8:	24021c25 	li	v0,7205
    11ec:	afc20904 	sw	v0,2308(s8)
    11f0:	24020bf3 	li	v0,3059
    11f4:	afc20908 	sw	v0,2312(s8)
    11f8:	24021461 	li	v0,5217
    11fc:	afc2090c 	sw	v0,2316(s8)
    1200:	24022146 	li	v0,8518
    1204:	afc20910 	sw	v0,2320(s8)
    1208:	24021351 	li	v0,4945
    120c:	afc20914 	sw	v0,2324(s8)
    1210:	2402030f 	li	v0,783
    1214:	afc20918 	sw	v0,2328(s8)
    1218:	24021ad9 	li	v0,6873
    121c:	afc2091c 	sw	v0,2332(s8)
    1220:	2402210a 	li	v0,8458
    1224:	afc20920 	sw	v0,2336(s8)
    1228:	24020369 	li	v0,873
    122c:	afc20924 	sw	v0,2340(s8)
    1230:	24021dd5 	li	v0,7637
    1234:	afc20928 	sw	v0,2344(s8)
    1238:	240210c1 	li	v0,4289
    123c:	afc2092c 	sw	v0,2348(s8)
    1240:	240201e3 	li	v0,483
    1244:	afc20930 	sw	v0,2352(s8)
    1248:	240219cf 	li	v0,6607
    124c:	afc20934 	sw	v0,2356(s8)
    1250:	240201de 	li	v0,478
    1254:	afc20938 	sw	v0,2360(s8)
    1258:	24020ac5 	li	v0,2757
    125c:	afc2093c 	sw	v0,2364(s8)
    1260:	24022462 	li	v0,9314
    1264:	afc20940 	sw	v0,2368(s8)
    1268:	24021177 	li	v0,4471
    126c:	afc20944 	sw	v0,2372(s8)
    1270:	24021661 	li	v0,5729
    1274:	afc20948 	sw	v0,2376(s8)
    1278:	2402044c 	li	v0,1100
    127c:	afc2094c 	sw	v0,2380(s8)
    1280:	24020d83 	li	v0,3459
    1284:	afc20950 	sw	v0,2384(s8)
    1288:	24020e22 	li	v0,3618
    128c:	afc20954 	sw	v0,2388(s8)
    1290:	240224de 	li	v0,9438
    1294:	afc20958 	sw	v0,2392(s8)
    1298:	24021f59 	li	v0,8025
    129c:	afc2095c 	sw	v0,2396(s8)
    12a0:	2402056c 	li	v0,1388
    12a4:	afc20960 	sw	v0,2400(s8)
    12a8:	24020c02 	li	v0,3074
    12ac:	afc20964 	sw	v0,2404(s8)
    12b0:	240204d1 	li	v0,1233
    12b4:	afc20968 	sw	v0,2408(s8)
    12b8:	24021fdd 	li	v0,8157
    12bc:	afc2096c 	sw	v0,2412(s8)
    12c0:	24020e61 	li	v0,3681
    12c4:	afc20970 	sw	v0,2416(s8)
    12c8:	24020da5 	li	v0,3493
    12cc:	afc20974 	sw	v0,2420(s8)
    12d0:	24020166 	li	v0,358
    12d4:	afc20978 	sw	v0,2424(s8)
    12d8:	2402010e 	li	v0,270
    12dc:	afc2097c 	sw	v0,2428(s8)
    12e0:	240202bb 	li	v0,699
    12e4:	afc20980 	sw	v0,2432(s8)
    12e8:	24020d59 	li	v0,3417
    12ec:	afc20984 	sw	v0,2436(s8)
    12f0:	2402072f 	li	v0,1839
    12f4:	afc20988 	sw	v0,2440(s8)
    12f8:	240215c1 	li	v0,5569
    12fc:	afc2098c 	sw	v0,2444(s8)
    1300:	240220ab 	li	v0,8363
    1304:	afc20990 	sw	v0,2448(s8)
    1308:	24020a3e 	li	v0,2622
    130c:	afc20994 	sw	v0,2452(s8)
    1310:	2402225a 	li	v0,8794
    1314:	afc20998 	sw	v0,2456(s8)
    1318:	24020c65 	li	v0,3173
    131c:	afc2099c 	sw	v0,2460(s8)
    1320:	24022677 	li	v0,9847
    1324:	afc209a0 	sw	v0,2464(s8)
    1328:	2402191f 	li	v0,6431
    132c:	afc209a4 	sw	v0,2468(s8)
    1330:	24021d26 	li	v0,7462
    1334:	afc209a8 	sw	v0,2472(s8)
    1338:	24021a1a 	li	v0,6682
    133c:	afc209ac 	sw	v0,2476(s8)
    1340:	240224ae 	li	v0,9390
    1344:	afc209b0 	sw	v0,2480(s8)
    1348:	240210c4 	li	v0,4292
    134c:	afc209b4 	sw	v0,2484(s8)
    1350:	2402169f 	li	v0,5791
    1354:	afc209b8 	sw	v0,2488(s8)
    1358:	240213c1 	li	v0,5057
    135c:	afc209bc 	sw	v0,2492(s8)
    1360:	240213fb 	li	v0,5115
    1364:	afc209c0 	sw	v0,2496(s8)
    1368:	240205f1 	li	v0,1521
    136c:	afc209c4 	sw	v0,2500(s8)
    1370:	2402180d 	li	v0,6157
    1374:	afc209c8 	sw	v0,2504(s8)
    1378:	2402217e 	li	v0,8574
    137c:	afc209cc 	sw	v0,2508(s8)
    1380:	240205d3 	li	v0,1491
    1384:	afc209d0 	sw	v0,2512(s8)
    1388:	2402079b 	li	v0,1947
    138c:	afc209d4 	sw	v0,2516(s8)
    1390:	24020b87 	li	v0,2951
    1394:	afc209d8 	sw	v0,2520(s8)
    1398:	2402240f 	li	v0,9231
    139c:	afc209dc 	sw	v0,2524(s8)
    13a0:	2402139d 	li	v0,5021
    13a4:	afc209e0 	sw	v0,2528(s8)
    13a8:	24020219 	li	v0,537
    13ac:	afc209e4 	sw	v0,2532(s8)
    13b0:	24020e9c 	li	v0,3740
    13b4:	afc209e8 	sw	v0,2536(s8)
    13b8:	240213be 	li	v0,5054
    13bc:	afc209ec 	sw	v0,2540(s8)
    13c0:	24020fbe 	li	v0,4030
    13c4:	afc209f0 	sw	v0,2544(s8)
    13c8:	24021002 	li	v0,4098
    13cc:	afc209f4 	sw	v0,2548(s8)
    13d0:	240214cd 	li	v0,5325
    13d4:	afc209f8 	sw	v0,2552(s8)
    13d8:	24020439 	li	v0,1081
    13dc:	afc209fc 	sw	v0,2556(s8)
    13e0:	24021d5c 	li	v0,7516
    13e4:	afc20a00 	sw	v0,2560(s8)
    13e8:	24020dbc 	li	v0,3516
    13ec:	afc20a04 	sw	v0,2564(s8)
    13f0:	24020bba 	li	v0,3002
    13f4:	afc20a08 	sw	v0,2568(s8)
    13f8:	240208b7 	li	v0,2231
    13fc:	afc20a0c 	sw	v0,2572(s8)
    1400:	240217fb 	li	v0,6139
    1404:	afc20a10 	sw	v0,2576(s8)
    1408:	24020704 	li	v0,1796
    140c:	afc20a14 	sw	v0,2580(s8)
    1410:	2402151c 	li	v0,5404
    1414:	afc20a18 	sw	v0,2584(s8)
    1418:	24020922 	li	v0,2338
    141c:	afc20a1c 	sw	v0,2588(s8)
    1420:	240211e4 	li	v0,4580
    1424:	afc20a20 	sw	v0,2592(s8)
    1428:	24022402 	li	v0,9218
    142c:	afc20a24 	sw	v0,2596(s8)
    1430:	2402233d 	li	v0,9021
    1434:	afc20a28 	sw	v0,2600(s8)
    1438:	24020f82 	li	v0,3970
    143c:	afc20a2c 	sw	v0,2604(s8)
    1440:	24022686 	li	v0,9862
    1444:	afc20a30 	sw	v0,2608(s8)
    1448:	240212cc 	li	v0,4812
    144c:	afc20a34 	sw	v0,2612(s8)
    1450:	24021503 	li	v0,5379
    1454:	afc20a38 	sw	v0,2616(s8)
    1458:	24021371 	li	v0,4977
    145c:	afc20a3c 	sw	v0,2620(s8)
    1460:	24020a7d 	li	v0,2685
    1464:	afc20a40 	sw	v0,2624(s8)
    1468:	24020600 	li	v0,1536
    146c:	afc20a44 	sw	v0,2628(s8)
    1470:	240226b0 	li	v0,9904
    1474:	afc20a48 	sw	v0,2632(s8)
    1478:	24021050 	li	v0,4176
    147c:	afc20a4c 	sw	v0,2636(s8)
    1480:	24020d9b 	li	v0,3483
    1484:	afc20a50 	sw	v0,2640(s8)
    1488:	240223f7 	li	v0,9207
    148c:	afc20a54 	sw	v0,2644(s8)
    1490:	2402261f 	li	v0,9759
    1494:	afc20a58 	sw	v0,2648(s8)
    1498:	240212f9 	li	v0,4857
    149c:	afc20a5c 	sw	v0,2652(s8)
    14a0:	24022610 	li	v0,9744
    14a4:	afc20a60 	sw	v0,2656(s8)
    14a8:	24020dab 	li	v0,3499
    14ac:	afc20a64 	sw	v0,2660(s8)
    14b0:	240226b7 	li	v0,9911
    14b4:	afc20a68 	sw	v0,2664(s8)
    14b8:	2402007f 	li	v0,127
    14bc:	afc20a6c 	sw	v0,2668(s8)
    14c0:	24020f6e 	li	v0,3950
    14c4:	afc20a70 	sw	v0,2672(s8)
    14c8:	24021474 	li	v0,5236
    14cc:	afc20a74 	sw	v0,2676(s8)
    14d0:	24021d88 	li	v0,7560
    14d4:	afc20a78 	sw	v0,2680(s8)
    14d8:	24021e8a 	li	v0,7818
    14dc:	afc20a7c 	sw	v0,2684(s8)
    14e0:	240213f1 	li	v0,5105
    14e4:	afc20a80 	sw	v0,2688(s8)
    14e8:	24020233 	li	v0,563
    14ec:	afc20a84 	sw	v0,2692(s8)
    14f0:	24020031 	li	v0,49
    14f4:	afc20a88 	sw	v0,2696(s8)
    14f8:	240204dc 	li	v0,1244
    14fc:	afc20a8c 	sw	v0,2700(s8)
    1500:	24022207 	li	v0,8711
    1504:	afc20a90 	sw	v0,2704(s8)
    1508:	2402070d 	li	v0,1805
    150c:	afc20a94 	sw	v0,2708(s8)
    1510:	240226ce 	li	v0,9934
    1514:	afc20a98 	sw	v0,2712(s8)
    1518:	24020cdb 	li	v0,3291
    151c:	afc20a9c 	sw	v0,2716(s8)
    1520:	24021ccf 	li	v0,7375
    1524:	afc20aa0 	sw	v0,2720(s8)
    1528:	240222fb 	li	v0,8955
    152c:	afc20aa4 	sw	v0,2724(s8)
    1530:	24020e1e 	li	v0,3614
    1534:	afc20aa8 	sw	v0,2728(s8)
    1538:	24020e05 	li	v0,3589
    153c:	afc20aac 	sw	v0,2732(s8)
    1540:	24020eb8 	li	v0,3768
    1544:	afc20ab0 	sw	v0,2736(s8)
    1548:	24022321 	li	v0,8993
    154c:	afc20ab4 	sw	v0,2740(s8)
    1550:	24021336 	li	v0,4918
    1554:	afc20ab8 	sw	v0,2744(s8)
    1558:	24020af5 	li	v0,2805
    155c:	afc20abc 	sw	v0,2748(s8)
    1560:	24021ae2 	li	v0,6882
    1564:	afc20ac0 	sw	v0,2752(s8)
    1568:	240212d6 	li	v0,4822
    156c:	afc20ac4 	sw	v0,2756(s8)
    1570:	24021b46 	li	v0,6982
    1574:	afc20ac8 	sw	v0,2760(s8)
    1578:	24021a3d 	li	v0,6717
    157c:	afc20acc 	sw	v0,2764(s8)
    1580:	24020fbe 	li	v0,4030
    1584:	afc20ad0 	sw	v0,2768(s8)
    1588:	24020c15 	li	v0,3093
    158c:	afc20ad4 	sw	v0,2772(s8)
    1590:	24020626 	li	v0,1574
    1594:	afc20ad8 	sw	v0,2776(s8)
    1598:	2402007e 	li	v0,126
    159c:	afc20adc 	sw	v0,2780(s8)
    15a0:	240219c1 	li	v0,6593
    15a4:	afc20ae0 	sw	v0,2784(s8)
    15a8:	240205ce 	li	v0,1486
    15ac:	afc20ae4 	sw	v0,2788(s8)
    15b0:	240200fd 	li	v0,253
    15b4:	afc20ae8 	sw	v0,2792(s8)
    15b8:	2402021f 	li	v0,543
    15bc:	afc20aec 	sw	v0,2796(s8)
    15c0:	24020c02 	li	v0,3074
    15c4:	afc20af0 	sw	v0,2800(s8)
    15c8:	24021e86 	li	v0,7814
    15cc:	afc20af4 	sw	v0,2804(s8)
    15d0:	24021269 	li	v0,4713
    15d4:	afc20af8 	sw	v0,2808(s8)
    15d8:	24021ff3 	li	v0,8179
    15dc:	afc20afc 	sw	v0,2812(s8)
    15e0:	240220b9 	li	v0,8377
    15e4:	afc20b00 	sw	v0,2816(s8)
    15e8:	2402129a 	li	v0,4762
    15ec:	afc20b04 	sw	v0,2820(s8)
    15f0:	2402168f 	li	v0,5775
    15f4:	afc20b08 	sw	v0,2824(s8)
    15f8:	24021bb0 	li	v0,7088
    15fc:	afc20b0c 	sw	v0,2828(s8)
    1600:	24020b67 	li	v0,2919
    1604:	afc20b10 	sw	v0,2832(s8)
    1608:	2402164e 	li	v0,5710
    160c:	afc20b14 	sw	v0,2836(s8)
    1610:	24021a4c 	li	v0,6732
    1614:	afc20b18 	sw	v0,2840(s8)
    1618:	24020126 	li	v0,294
    161c:	afc20b1c 	sw	v0,2844(s8)
    1620:	240203f9 	li	v0,1017
    1624:	afc20b20 	sw	v0,2848(s8)
    1628:	2402015a 	li	v0,346
    162c:	afc20b24 	sw	v0,2852(s8)
    1630:	240200eb 	li	v0,235
    1634:	afc20b28 	sw	v0,2856(s8)
    1638:	24020471 	li	v0,1137
    163c:	afc20b2c 	sw	v0,2860(s8)
    1640:	2402163b 	li	v0,5691
    1644:	afc20b30 	sw	v0,2864(s8)
    1648:	24021421 	li	v0,5153
    164c:	afc20b34 	sw	v0,2868(s8)
    1650:	24020f67 	li	v0,3943
    1654:	afc20b38 	sw	v0,2872(s8)
    1658:	24020a0d 	li	v0,2573
    165c:	afc20b3c 	sw	v0,2876(s8)
    1660:	240218b8 	li	v0,6328
    1664:	afc20b40 	sw	v0,2880(s8)
    1668:	2402039d 	li	v0,925
    166c:	afc20b44 	sw	v0,2884(s8)
    1670:	2402244b 	li	v0,9291
    1674:	afc20b48 	sw	v0,2888(s8)
    1678:	24021a36 	li	v0,6710
    167c:	afc20b4c 	sw	v0,2892(s8)
    1680:	24020fb2 	li	v0,4018
    1684:	afc20b50 	sw	v0,2896(s8)
    1688:	24021c31 	li	v0,7217
    168c:	afc20b54 	sw	v0,2900(s8)
    1690:	24021ab4 	li	v0,6836
    1694:	afc20b58 	sw	v0,2904(s8)
    1698:	24021b33 	li	v0,6963
    169c:	afc20b5c 	sw	v0,2908(s8)
    16a0:	240213bf 	li	v0,5055
    16a4:	afc20b60 	sw	v0,2912(s8)
    16a8:	24021bb2 	li	v0,7090
    16ac:	afc20b64 	sw	v0,2916(s8)
    16b0:	24020f12 	li	v0,3858
    16b4:	afc20b68 	sw	v0,2920(s8)
    16b8:	24021fc2 	li	v0,8130
    16bc:	afc20b6c 	sw	v0,2924(s8)
    16c0:	24021328 	li	v0,4904
    16c4:	afc20b70 	sw	v0,2928(s8)
    16c8:	2402217b 	li	v0,8571
    16cc:	afc20b74 	sw	v0,2932(s8)
    16d0:	24020a65 	li	v0,2661
    16d4:	afc20b78 	sw	v0,2936(s8)
    16d8:	240225a1 	li	v0,9633
    16dc:	afc20b7c 	sw	v0,2940(s8)
    16e0:	240225d5 	li	v0,9685
    16e4:	afc20b80 	sw	v0,2944(s8)
    16e8:	240212b5 	li	v0,4789
    16ec:	afc20b84 	sw	v0,2948(s8)
    16f0:	24020c01 	li	v0,3073
    16f4:	afc20b88 	sw	v0,2952(s8)
    16f8:	24020a2c 	li	v0,2604
    16fc:	afc20b8c 	sw	v0,2956(s8)
    1700:	24021ac3 	li	v0,6851
    1704:	afc20b90 	sw	v0,2960(s8)
    1708:	2402264d 	li	v0,9805
    170c:	afc20b94 	sw	v0,2964(s8)
    1710:	24022422 	li	v0,9250
    1714:	afc20b98 	sw	v0,2968(s8)
    1718:	24021ebc 	li	v0,7868
    171c:	afc20b9c 	sw	v0,2972(s8)
    1720:	24021967 	li	v0,6503
    1724:	afc20ba0 	sw	v0,2976(s8)
    1728:	2402250d 	li	v0,9485
    172c:	afc20ba4 	sw	v0,2980(s8)
    1730:	2402232e 	li	v0,9006
    1734:	afc20ba8 	sw	v0,2984(s8)
    1738:	24020893 	li	v0,2195
    173c:	afc20bac 	sw	v0,2988(s8)
    1740:	2402121f 	li	v0,4639
    1744:	afc20bb0 	sw	v0,2992(s8)
    1748:	24020b85 	li	v0,2949
    174c:	afc20bb4 	sw	v0,2996(s8)
    1750:	24020460 	li	v0,1120
    1754:	afc20bb8 	sw	v0,3000(s8)
    1758:	240203c7 	li	v0,967
    175c:	afc20bbc 	sw	v0,3004(s8)
    1760:	240200e2 	li	v0,226
    1764:	afc20bc0 	sw	v0,3008(s8)
    1768:	24021a6b 	li	v0,6763
    176c:	afc20bc4 	sw	v0,3012(s8)
    1770:	24021dfd 	li	v0,7677
    1774:	afc20bc8 	sw	v0,3016(s8)
    1778:	24020254 	li	v0,596
    177c:	afc20bcc 	sw	v0,3020(s8)
    1780:	24020f8d 	li	v0,3981
    1784:	afc20bd0 	sw	v0,3024(s8)
    1788:	24020361 	li	v0,865
    178c:	afc20bd4 	sw	v0,3028(s8)
    1790:	24021d88 	li	v0,7560
    1794:	afc20bd8 	sw	v0,3032(s8)
    1798:	2402234c 	li	v0,9036
    179c:	afc20bdc 	sw	v0,3036(s8)
    17a0:	24021f13 	li	v0,7955
    17a4:	afc20be0 	sw	v0,3040(s8)
    17a8:	24021e5a 	li	v0,7770
    17ac:	afc20be4 	sw	v0,3044(s8)
    17b0:	24020dbe 	li	v0,3518
    17b4:	afc20be8 	sw	v0,3048(s8)
    17b8:	240223fb 	li	v0,9211
    17bc:	afc20bec 	sw	v0,3052(s8)
    17c0:	240218c6 	li	v0,6342
    17c4:	afc20bf0 	sw	v0,3056(s8)
    17c8:	240209e4 	li	v0,2532
    17cc:	afc20bf4 	sw	v0,3060(s8)
    17d0:	2402144c 	li	v0,5196
    17d4:	afc20bf8 	sw	v0,3064(s8)
    17d8:	2402094b 	li	v0,2379
    17dc:	afc20bfc 	sw	v0,3068(s8)
    17e0:	24021c99 	li	v0,7321
    17e4:	afc20c00 	sw	v0,3072(s8)
    17e8:	2402204e 	li	v0,8270
    17ec:	afc20c04 	sw	v0,3076(s8)
    17f0:	24021378 	li	v0,4984
    17f4:	afc20c08 	sw	v0,3080(s8)
    17f8:	2402104c 	li	v0,4172
    17fc:	afc20c0c 	sw	v0,3084(s8)
    1800:	2402114b 	li	v0,4427
    1804:	afc20c10 	sw	v0,3088(s8)
    1808:	2402108a 	li	v0,4234
    180c:	afc20c14 	sw	v0,3092(s8)
    1810:	240207f8 	li	v0,2040
    1814:	afc20c18 	sw	v0,3096(s8)
    1818:	24021c73 	li	v0,7283
    181c:	afc20c1c 	sw	v0,3100(s8)
    1820:	24020048 	li	v0,72
    1824:	afc20c20 	sw	v0,3104(s8)
    1828:	24021ce6 	li	v0,7398
    182c:	afc20c24 	sw	v0,3108(s8)
    1830:	240216c6 	li	v0,5830
    1834:	afc20c28 	sw	v0,3112(s8)
    1838:	24020427 	li	v0,1063
    183c:	afc20c2c 	sw	v0,3116(s8)
    1840:	2402015b 	li	v0,347
    1844:	afc20c30 	sw	v0,3120(s8)
    1848:	24021b26 	li	v0,6950
    184c:	afc20c34 	sw	v0,3124(s8)
    1850:	240207ee 	li	v0,2030
    1854:	afc20c38 	sw	v0,3128(s8)
    1858:	2402023d 	li	v0,573
    185c:	afc20c3c 	sw	v0,3132(s8)
    1860:	24020e82 	li	v0,3714
    1864:	afc20c40 	sw	v0,3136(s8)
    1868:	240217ab 	li	v0,6059
    186c:	afc20c44 	sw	v0,3140(s8)
    1870:	24021d62 	li	v0,7522
    1874:	afc20c48 	sw	v0,3144(s8)
    1878:	24020fcf 	li	v0,4047
    187c:	afc20c4c 	sw	v0,3148(s8)
    1880:	24021b0c 	li	v0,6924
    1884:	afc20c50 	sw	v0,3152(s8)
    1888:	240213da 	li	v0,5082
    188c:	afc20c54 	sw	v0,3156(s8)
    1890:	240224db 	li	v0,9435
    1894:	afc20c58 	sw	v0,3160(s8)
    1898:	240204d0 	li	v0,1232
    189c:	afc20c5c 	sw	v0,3164(s8)
    18a0:	240223f4 	li	v0,9204
    18a4:	afc20c60 	sw	v0,3168(s8)
    18a8:	24020b8a 	li	v0,2954
    18ac:	afc20c64 	sw	v0,3172(s8)
    18b0:	240201bb 	li	v0,443
    18b4:	afc20c68 	sw	v0,3176(s8)
    18b8:	2402076a 	li	v0,1898
    18bc:	afc20c6c 	sw	v0,3180(s8)
    18c0:	2402156e 	li	v0,5486
    18c4:	afc20c70 	sw	v0,3184(s8)
    18c8:	24021608 	li	v0,5640
    18cc:	afc20c74 	sw	v0,3188(s8)
    18d0:	240210b6 	li	v0,4278
    18d4:	afc20c78 	sw	v0,3192(s8)
    18d8:	240223c7 	li	v0,9159
    18dc:	afc20c7c 	sw	v0,3196(s8)
    18e0:	24020106 	li	v0,262
    18e4:	afc20c80 	sw	v0,3200(s8)
    18e8:	2402242e 	li	v0,9262
    18ec:	afc20c84 	sw	v0,3204(s8)
    18f0:	240225d3 	li	v0,9683
    18f4:	afc20c88 	sw	v0,3208(s8)
    18f8:	24020411 	li	v0,1041
    18fc:	afc20c8c 	sw	v0,3212(s8)
    1900:	24022678 	li	v0,9848
    1904:	afc20c90 	sw	v0,3216(s8)
    1908:	240206bb 	li	v0,1723
    190c:	afc20c94 	sw	v0,3220(s8)
    1910:	24022084 	li	v0,8324
    1914:	afc20c98 	sw	v0,3224(s8)
    1918:	24021880 	li	v0,6272
    191c:	afc20c9c 	sw	v0,3228(s8)
    1920:	240223a2 	li	v0,9122
    1924:	afc20ca0 	sw	v0,3232(s8)
    1928:	2402103a 	li	v0,4154
    192c:	afc20ca4 	sw	v0,3236(s8)
    1930:	24021ca7 	li	v0,7335
    1934:	afc20ca8 	sw	v0,3240(s8)
    1938:	240216bd 	li	v0,5821
    193c:	afc20cac 	sw	v0,3244(s8)
    1940:	24021d21 	li	v0,7457
    1944:	afc20cb0 	sw	v0,3248(s8)
    1948:	24022495 	li	v0,9365
    194c:	afc20cb4 	sw	v0,3252(s8)
    1950:	24020abb 	li	v0,2747
    1954:	afc20cb8 	sw	v0,3256(s8)
    1958:	24020493 	li	v0,1171
    195c:	afc20cbc 	sw	v0,3260(s8)
    1960:	240206f0 	li	v0,1776
    1964:	afc20cc0 	sw	v0,3264(s8)
    1968:	2402010d 	li	v0,269
    196c:	afc20cc4 	sw	v0,3268(s8)
    1970:	24021462 	li	v0,5218
    1974:	afc20cc8 	sw	v0,3272(s8)
    1978:	240221fd 	li	v0,8701
    197c:	afc20ccc 	sw	v0,3276(s8)
    1980:	240206a7 	li	v0,1703
    1984:	afc20cd0 	sw	v0,3280(s8)
    1988:	2402122d 	li	v0,4653
    198c:	afc20cd4 	sw	v0,3284(s8)
    1990:	240226cd 	li	v0,9933
    1994:	afc20cd8 	sw	v0,3288(s8)
    1998:	2402038b 	li	v0,907
    199c:	afc20cdc 	sw	v0,3292(s8)
    19a0:	24020f77 	li	v0,3959
    19a4:	afc20ce0 	sw	v0,3296(s8)
    19a8:	24021a48 	li	v0,6728
    19ac:	afc20ce4 	sw	v0,3300(s8)
    19b0:	24020af6 	li	v0,2806
    19b4:	afc20ce8 	sw	v0,3304(s8)
    19b8:	240216a5 	li	v0,5797
    19bc:	afc20cec 	sw	v0,3308(s8)
    19c0:	24022210 	li	v0,8720
    19c4:	afc20cf0 	sw	v0,3312(s8)
    19c8:	24021bac 	li	v0,7084
    19cc:	afc20cf4 	sw	v0,3316(s8)
    19d0:	2402051c 	li	v0,1308
    19d4:	afc20cf8 	sw	v0,3320(s8)
    19d8:	240214d6 	li	v0,5334
    19dc:	afc20cfc 	sw	v0,3324(s8)
    19e0:	24020a8a 	li	v0,2698
    19e4:	afc20d00 	sw	v0,3328(s8)
    19e8:	240203df 	li	v0,991
    19ec:	afc20d04 	sw	v0,3332(s8)
    19f0:	240218e8 	li	v0,6376
    19f4:	afc20d08 	sw	v0,3336(s8)
    19f8:	240222c2 	li	v0,8898
    19fc:	afc20d0c 	sw	v0,3340(s8)
    1a00:	24020a9b 	li	v0,2715
    1a04:	afc20d10 	sw	v0,3344(s8)
    1a08:	2402041c 	li	v0,1052
    1a0c:	afc20d14 	sw	v0,3348(s8)
    1a10:	24021433 	li	v0,5171
    1a14:	afc20d18 	sw	v0,3352(s8)
    1a18:	24021ffd 	li	v0,8189
    1a1c:	afc20d1c 	sw	v0,3356(s8)
    1a20:	24020617 	li	v0,1559
    1a24:	afc20d20 	sw	v0,3360(s8)
    1a28:	240209ca 	li	v0,2506
    1a2c:	afc20d24 	sw	v0,3364(s8)
    1a30:	24020faa 	li	v0,4010
    1a34:	afc20d28 	sw	v0,3368(s8)
    1a38:	24022338 	li	v0,9016
    1a3c:	afc20d2c 	sw	v0,3372(s8)
    1a40:	24022020 	li	v0,8224
    1a44:	afc20d30 	sw	v0,3376(s8)
    1a48:	24020c25 	li	v0,3109
    1a4c:	afc20d34 	sw	v0,3380(s8)
    1a50:	2402198b 	li	v0,6539
    1a54:	afc20d38 	sw	v0,3384(s8)
    1a58:	afc00d3c 	sw	zero,3388(s8)
    1a5c:	24020d32 	li	v0,3378
    1a60:	afc20d40 	sw	v0,3392(s8)
    1a64:	24021fad 	li	v0,8109
    1a68:	afc20d44 	sw	v0,3396(s8)
    1a6c:	240213bd 	li	v0,5053
    1a70:	afc20d48 	sw	v0,3400(s8)
    1a74:	240213d9 	li	v0,5081
    1a78:	afc20d4c 	sw	v0,3404(s8)
    1a7c:	2402239a 	li	v0,9114
    1a80:	afc20d50 	sw	v0,3408(s8)
    1a84:	2402053a 	li	v0,1338
    1a88:	afc20d54 	sw	v0,3412(s8)
    1a8c:	24021765 	li	v0,5989
    1a90:	afc20d58 	sw	v0,3416(s8)
    1a94:	240224d2 	li	v0,9426
    1a98:	afc20d5c 	sw	v0,3420(s8)
    1a9c:	24021f83 	li	v0,8067
    1aa0:	afc20d60 	sw	v0,3424(s8)
    1aa4:	2402141b 	li	v0,5147
    1aa8:	afc20d64 	sw	v0,3428(s8)
    1aac:	24021467 	li	v0,5223
    1ab0:	afc20d68 	sw	v0,3432(s8)
    1ab4:	24021a83 	li	v0,6787
    1ab8:	afc20d6c 	sw	v0,3436(s8)
    1abc:	240208b7 	li	v0,2231
    1ac0:	afc20d70 	sw	v0,3440(s8)
    1ac4:	24021984 	li	v0,6532
    1ac8:	afc20d74 	sw	v0,3444(s8)
    1acc:	2402084a 	li	v0,2122
    1ad0:	afc20d78 	sw	v0,3448(s8)
    1ad4:	24020501 	li	v0,1281
    1ad8:	afc20d7c 	sw	v0,3452(s8)
    1adc:	24020f23 	li	v0,3875
    1ae0:	afc20d80 	sw	v0,3456(s8)
    1ae4:	240212f2 	li	v0,4850
    1ae8:	afc20d84 	sw	v0,3460(s8)
    1aec:	240200b3 	li	v0,179
    1af0:	afc20d88 	sw	v0,3464(s8)
    1af4:	240219be 	li	v0,6590
    1af8:	afc20d8c 	sw	v0,3468(s8)
    1afc:	240208ce 	li	v0,2254
    1b00:	afc20d90 	sw	v0,3472(s8)
    1b04:	240214e6 	li	v0,5350
    1b08:	afc20d94 	sw	v0,3476(s8)
    1b0c:	2402046b 	li	v0,1131
    1b10:	afc20d98 	sw	v0,3480(s8)
    1b14:	24020ee5 	li	v0,3813
    1b18:	afc20d9c 	sw	v0,3484(s8)
    1b1c:	24021eb1 	li	v0,7857
    1b20:	afc20da0 	sw	v0,3488(s8)
    1b24:	240205d6 	li	v0,1494
    1b28:	afc20da4 	sw	v0,3492(s8)
    1b2c:	240223dd 	li	v0,9181
    1b30:	afc20da8 	sw	v0,3496(s8)
    1b34:	240217c1 	li	v0,6081
    1b38:	afc20dac 	sw	v0,3500(s8)
    1b3c:	240211fb 	li	v0,4603
    1b40:	afc20db0 	sw	v0,3504(s8)
    1b44:	24021658 	li	v0,5720
    1b48:	afc20db4 	sw	v0,3508(s8)
    1b4c:	24020981 	li	v0,2433
    1b50:	afc20db8 	sw	v0,3512(s8)
    1b54:	24021f2e 	li	v0,7982
    1b58:	afc20dbc 	sw	v0,3516(s8)
    1b5c:	240200b5 	li	v0,181
    1b60:	afc20dc0 	sw	v0,3520(s8)
    1b64:	24021d3f 	li	v0,7487
    1b68:	afc20dc4 	sw	v0,3524(s8)
    1b6c:	240224c7 	li	v0,9415
    1b70:	afc20dc8 	sw	v0,3528(s8)
    1b74:	24022450 	li	v0,9296
    1b78:	afc20dcc 	sw	v0,3532(s8)
    1b7c:	24022279 	li	v0,8825
    1b80:	afc20dd0 	sw	v0,3536(s8)
    1b84:	2402151c 	li	v0,5404
    1b88:	afc20dd4 	sw	v0,3540(s8)
    1b8c:	24022212 	li	v0,8722
    1b90:	afc20dd8 	sw	v0,3544(s8)
    1b94:	24021aec 	li	v0,6892
    1b98:	afc20ddc 	sw	v0,3548(s8)
    1b9c:	24020227 	li	v0,551
    1ba0:	afc20de0 	sw	v0,3552(s8)
    1ba4:	24020129 	li	v0,297
    1ba8:	afc20de4 	sw	v0,3556(s8)
    1bac:	24020020 	li	v0,32
    1bb0:	afc20de8 	sw	v0,3560(s8)
    1bb4:	240223ae 	li	v0,9134
    1bb8:	afc20dec 	sw	v0,3564(s8)
    1bbc:	24020c6d 	li	v0,3181
    1bc0:	afc20df0 	sw	v0,3568(s8)
    1bc4:	2402213a 	li	v0,8506
    1bc8:	afc20df4 	sw	v0,3572(s8)
    1bcc:	2402019f 	li	v0,415
    1bd0:	afc20df8 	sw	v0,3576(s8)
    1bd4:	24021b91 	li	v0,7057
    1bd8:	afc20dfc 	sw	v0,3580(s8)
    1bdc:	240225ec 	li	v0,9708
    1be0:	afc20e00 	sw	v0,3584(s8)
    1be4:	24020253 	li	v0,595
    1be8:	afc20e04 	sw	v0,3588(s8)
    1bec:	2402270f 	li	v0,9999
    1bf0:	afc20e08 	sw	v0,3592(s8)
    1bf4:	240207aa 	li	v0,1962
    1bf8:	afc20e0c 	sw	v0,3596(s8)
    1bfc:	240208f9 	li	v0,2297
    1c00:	afc20e10 	sw	v0,3600(s8)
    1c04:	24021d3b 	li	v0,7483
    1c08:	afc20e14 	sw	v0,3604(s8)
    1c0c:	24021690 	li	v0,5776
    1c10:	afc20e18 	sw	v0,3608(s8)
    1c14:	2402009a 	li	v0,154
    1c18:	afc20e1c 	sw	v0,3612(s8)
    1c1c:	24022311 	li	v0,8977
    1c20:	afc20e20 	sw	v0,3616(s8)
    1c24:	2402051d 	li	v0,1309
    1c28:	afc20e24 	sw	v0,3620(s8)
    1c2c:	24020a1b 	li	v0,2587
    1c30:	afc20e28 	sw	v0,3624(s8)
    1c34:	240226cc 	li	v0,9932
    1c38:	afc20e2c 	sw	v0,3628(s8)
    1c3c:	24020d36 	li	v0,3382
    1c40:	afc20e30 	sw	v0,3632(s8)
    1c44:	2402139d 	li	v0,5021
    1c48:	afc20e34 	sw	v0,3636(s8)
    1c4c:	240210aa 	li	v0,4266
    1c50:	afc20e38 	sw	v0,3640(s8)
    1c54:	24020deb 	li	v0,3563
    1c58:	afc20e3c 	sw	v0,3644(s8)
    1c5c:	2402229c 	li	v0,8860
    1c60:	afc20e40 	sw	v0,3648(s8)
    1c64:	24020e62 	li	v0,3682
    1c68:	afc20e44 	sw	v0,3652(s8)
    1c6c:	240223fb 	li	v0,9211
    1c70:	afc20e48 	sw	v0,3656(s8)
    1c74:	24021e05 	li	v0,7685
    1c78:	afc20e4c 	sw	v0,3660(s8)
    1c7c:	2402237e 	li	v0,9086
    1c80:	afc20e50 	sw	v0,3664(s8)
    1c84:	240210bd 	li	v0,4285
    1c88:	afc20e54 	sw	v0,3668(s8)
    1c8c:	240203a2 	li	v0,930
    1c90:	afc20e58 	sw	v0,3672(s8)
    1c94:	24021766 	li	v0,5990
    1c98:	afc20e5c 	sw	v0,3676(s8)
    1c9c:	240211e7 	li	v0,4583
    1ca0:	afc20e60 	sw	v0,3680(s8)
    1ca4:	24021c92 	li	v0,7314
    1ca8:	afc20e64 	sw	v0,3684(s8)
    1cac:	240205c4 	li	v0,1476
    1cb0:	afc20e68 	sw	v0,3688(s8)
    1cb4:	24021014 	li	v0,4116
    1cb8:	afc20e6c 	sw	v0,3692(s8)
    1cbc:	240216bc 	li	v0,5820
    1cc0:	afc20e70 	sw	v0,3696(s8)
    1cc4:	24020764 	li	v0,1892
    1cc8:	afc20e74 	sw	v0,3700(s8)
    1ccc:	24021d65 	li	v0,7525
    1cd0:	afc20e78 	sw	v0,3704(s8)
    1cd4:	24021598 	li	v0,5528
    1cd8:	afc20e7c 	sw	v0,3708(s8)
    1cdc:	24022287 	li	v0,8839
    1ce0:	afc20e80 	sw	v0,3712(s8)
    1ce4:	24021d65 	li	v0,7525
    1ce8:	afc20e84 	sw	v0,3716(s8)
    1cec:	24021d42 	li	v0,7490
    1cf0:	afc20e88 	sw	v0,3720(s8)
    1cf4:	24020470 	li	v0,1136
    1cf8:	afc20e8c 	sw	v0,3724(s8)
    1cfc:	24020550 	li	v0,1360
    1d00:	afc20e90 	sw	v0,3728(s8)
    1d04:	24022592 	li	v0,9618
    1d08:	afc20e94 	sw	v0,3732(s8)
    1d0c:	24021ddb 	li	v0,7643
    1d10:	afc20e98 	sw	v0,3736(s8)
    1d14:	24020151 	li	v0,337
    1d18:	afc20e9c 	sw	v0,3740(s8)
    1d1c:	240203a0 	li	v0,928
    1d20:	afc20ea0 	sw	v0,3744(s8)
    1d24:	240219b6 	li	v0,6582
    1d28:	afc20ea4 	sw	v0,3748(s8)
    1d2c:	240219dd 	li	v0,6621
    1d30:	afc20ea8 	sw	v0,3752(s8)
    1d34:	240210d6 	li	v0,4310
    1d38:	afc20eac 	sw	v0,3756(s8)
    1d3c:	24021f13 	li	v0,7955
    1d40:	afc20eb0 	sw	v0,3760(s8)
    1d44:	24020378 	li	v0,888
    1d48:	afc20eb4 	sw	v0,3764(s8)
    1d4c:	24021081 	li	v0,4225
    1d50:	afc20eb8 	sw	v0,3768(s8)
    1d54:	24021a9f 	li	v0,6815
    1d58:	afc20ebc 	sw	v0,3772(s8)
    1d5c:	240211da 	li	v0,4570
    1d60:	afc20ec0 	sw	v0,3776(s8)
    1d64:	24020d6d 	li	v0,3437
    1d68:	afc20ec4 	sw	v0,3780(s8)
    1d6c:	24020355 	li	v0,853
    1d70:	afc20ec8 	sw	v0,3784(s8)
    1d74:	24020008 	li	v0,8
    1d78:	afc20ecc 	sw	v0,3788(s8)
    1d7c:	24021e2a 	li	v0,7722
    1d80:	afc20ed0 	sw	v0,3792(s8)
    1d84:	240206f7 	li	v0,1783
    1d88:	afc20ed4 	sw	v0,3796(s8)
    1d8c:	2402092e 	li	v0,2350
    1d90:	afc20ed8 	sw	v0,3800(s8)
    1d94:	240221d1 	li	v0,8657
    1d98:	afc20edc 	sw	v0,3804(s8)
    1d9c:	24022389 	li	v0,9097
    1da0:	afc20ee0 	sw	v0,3808(s8)
    1da4:	24020ef3 	li	v0,3827
    1da8:	afc20ee4 	sw	v0,3812(s8)
    1dac:	240223a6 	li	v0,9126
    1db0:	afc20ee8 	sw	v0,3816(s8)
    1db4:	240204f5 	li	v0,1269
    1db8:	afc20eec 	sw	v0,3820(s8)
    1dbc:	24020817 	li	v0,2071
    1dc0:	afc20ef0 	sw	v0,3824(s8)
    1dc4:	240219fb 	li	v0,6651
    1dc8:	afc20ef4 	sw	v0,3828(s8)
    1dcc:	24020c4d 	li	v0,3149
    1dd0:	afc20ef8 	sw	v0,3832(s8)
    1dd4:	2402038e 	li	v0,910
    1dd8:	afc20efc 	sw	v0,3836(s8)
    1ddc:	24020210 	li	v0,528
    1de0:	afc20f00 	sw	v0,3840(s8)
    1de4:	2402027f 	li	v0,639
    1de8:	afc20f04 	sw	v0,3844(s8)
    1dec:	240220ce 	li	v0,8398
    1df0:	afc20f08 	sw	v0,3848(s8)
    1df4:	24020760 	li	v0,1888
    1df8:	afc20f0c 	sw	v0,3852(s8)
    1dfc:	240219d2 	li	v0,6610
    1e00:	afc20f10 	sw	v0,3856(s8)
    1e04:	24020959 	li	v0,2393
    1e08:	afc20f14 	sw	v0,3860(s8)
    1e0c:	24022181 	li	v0,8577
    1e10:	afc20f18 	sw	v0,3864(s8)
    1e14:	24020f32 	li	v0,3890
    1e18:	afc20f1c 	sw	v0,3868(s8)
    1e1c:	24022310 	li	v0,8976
    1e20:	afc20f20 	sw	v0,3872(s8)
    1e24:	2402144f 	li	v0,5199
    1e28:	afc20f24 	sw	v0,3876(s8)
    1e2c:	240211c8 	li	v0,4552
    1e30:	afc20f28 	sw	v0,3880(s8)
    1e34:	24021b13 	li	v0,6931
    1e38:	afc20f2c 	sw	v0,3884(s8)
    1e3c:	240217c7 	li	v0,6087
    1e40:	afc20f30 	sw	v0,3888(s8)
    1e44:	24022249 	li	v0,8777
    1e48:	afc20f34 	sw	v0,3892(s8)
    1e4c:	24020063 	li	v0,99
    1e50:	afc20f38 	sw	v0,3896(s8)
    1e54:	24020291 	li	v0,657
    1e58:	afc20f3c 	sw	v0,3900(s8)
    1e5c:	24022176 	li	v0,8566
    1e60:	afc20f40 	sw	v0,3904(s8)
    1e64:	240203b8 	li	v0,952
    1e68:	afc20f44 	sw	v0,3908(s8)
    1e6c:	24021b69 	li	v0,7017
    1e70:	afc20f48 	sw	v0,3912(s8)
    1e74:	24020a51 	li	v0,2641
    1e78:	afc20f4c 	sw	v0,3916(s8)
    1e7c:	24020aaf 	li	v0,2735
    1e80:	afc20f50 	sw	v0,3920(s8)
    1e84:	24022498 	li	v0,9368
    1e88:	afc20f54 	sw	v0,3924(s8)
    1e8c:	24020512 	li	v0,1298
    1e90:	afc20f58 	sw	v0,3928(s8)
    1e94:	24021ff8 	li	v0,8184
    1e98:	afc20f5c 	sw	v0,3932(s8)
    1e9c:	24020c7b 	li	v0,3195
    1ea0:	afc20f60 	sw	v0,3936(s8)
    1ea4:	24021a78 	li	v0,6776
    1ea8:	afc20f64 	sw	v0,3940(s8)
    1eac:	240216ad 	li	v0,5805
    1eb0:	afc20f68 	sw	v0,3944(s8)
    1eb4:	24021492 	li	v0,5266
    1eb8:	afc20f6c 	sw	v0,3948(s8)
    1ebc:	24020d64 	li	v0,3428
    1ec0:	afc20f70 	sw	v0,3952(s8)
    1ec4:	240222fa 	li	v0,8954
    1ec8:	afc20f74 	sw	v0,3956(s8)
    1ecc:	240209e0 	li	v0,2528
    1ed0:	afc20f78 	sw	v0,3960(s8)
    1ed4:	24020134 	li	v0,308
    1ed8:	afc20f7c 	sw	v0,3964(s8)
    1edc:	24022579 	li	v0,9593
    1ee0:	afc20f80 	sw	v0,3968(s8)
    1ee4:	24021c6e 	li	v0,7278
    1ee8:	afc20f84 	sw	v0,3972(s8)
    1eec:	24020895 	li	v0,2197
    1ef0:	afc20f88 	sw	v0,3976(s8)
    1ef4:	240209fb 	li	v0,2555
    1ef8:	afc20f8c 	sw	v0,3980(s8)
    1efc:	240225c8 	li	v0,9672
    1f00:	afc20f90 	sw	v0,3984(s8)
    1f04:	24020306 	li	v0,774
    1f08:	afc20f94 	sw	v0,3988(s8)
    1f0c:	2402192d 	li	v0,6445
    1f10:	afc20f98 	sw	v0,3992(s8)
    1f14:	24021388 	li	v0,5000
    1f18:	afc20f9c 	sw	v0,3996(s8)
    1f1c:	24020915 	li	v0,2325
    1f20:	afc20fa0 	sw	v0,4000(s8)
    1f24:	240203e5 	li	v0,997
    1f28:	afc20fa4 	sw	v0,4004(s8)
    1f2c:	2402205b 	li	v0,8283
    1f30:	afc20fa8 	sw	v0,4008(s8)
    1f34:	240220dc 	li	v0,8412
    1f38:	afc20fac 	sw	v0,4012(s8)
    1f3c:	240217ef 	li	v0,6127
    1f40:	afc20fb0 	sw	v0,4016(s8)
    1f44:	240220be 	li	v0,8382
    1f48:	afc20fb4 	sw	v0,4020(s8)
    1f4c:	2402152d 	li	v0,5421
    1f50:	afc20fb8 	sw	v0,4024(s8)
    1f54:	24021255 	li	v0,4693
    1f58:	afc20fbc 	sw	v0,4028(s8)
    1f5c:	24022476 	li	v0,9334
    1f60:	afc20fc0 	sw	v0,4032(s8)
    1f64:	24020987 	li	v0,2439
    1f68:	afc20fc4 	sw	v0,4036(s8)
    1f6c:	24021ca6 	li	v0,7334
    1f70:	afc20fc8 	sw	v0,4040(s8)
    1f74:	240220e5 	li	v0,8421
    1f78:	afc20fcc 	sw	v0,4044(s8)
    1f7c:	24021fdf 	li	v0,8159
    1f80:	afc20fd0 	sw	v0,4048(s8)
    1f84:	24021379 	li	v0,4985
    1f88:	afc20fd4 	sw	v0,4052(s8)
    1f8c:	24020b8d 	li	v0,2957
    1f90:	afc20fd8 	sw	v0,4056(s8)
    1f94:	2402054a 	li	v0,1354
    1f98:	afc20fdc 	sw	v0,4060(s8)
    1f9c:	240206e1 	li	v0,1761
    1fa0:	afc20fe0 	sw	v0,4064(s8)
    1fa4:	2402223a 	li	v0,8762
    1fa8:	afc20fe4 	sw	v0,4068(s8)
    1fac:	24020b9c 	li	v0,2972
    1fb0:	afc20fe8 	sw	v0,4072(s8)
    1fb4:	24020605 	li	v0,1541
    1fb8:	afc20fec 	sw	v0,4076(s8)
    1fbc:	24021e24 	li	v0,7716
    1fc0:	afc20ff0 	sw	v0,4080(s8)
    1fc4:	2402073c 	li	v0,1852
    1fc8:	afc20ff4 	sw	v0,4084(s8)
    1fcc:	2402073a 	li	v0,1850
    1fd0:	afc20ff8 	sw	v0,4088(s8)
    1fd4:	24020e4e 	li	v0,3662
    1fd8:	afc20ffc 	sw	v0,4092(s8)
    1fdc:	2402156a 	li	v0,5482
    1fe0:	afc21000 	sw	v0,4096(s8)
    1fe4:	2402018f 	li	v0,399
    1fe8:	afc21004 	sw	v0,4100(s8)
    1fec:	24021849 	li	v0,6217
    1ff0:	afc21008 	sw	v0,4104(s8)
    1ff4:	24021422 	li	v0,5154
    1ff8:	afc2100c 	sw	v0,4108(s8)
    1ffc:	24020495 	li	v0,1173
    2000:	afc21010 	sw	v0,4112(s8)
    2004:	24022337 	li	v0,9015
    2008:	afc21014 	sw	v0,4116(s8)
    200c:	2402196a 	li	v0,6506
    2010:	afc21018 	sw	v0,4120(s8)
    2014:	2402267b 	li	v0,9851
    2018:	afc2101c 	sw	v0,4124(s8)
    201c:	240218dc 	li	v0,6364
    2020:	afc21020 	sw	v0,4128(s8)
    2024:	240212b6 	li	v0,4790
    2028:	afc21024 	sw	v0,4132(s8)
    202c:	24022047 	li	v0,8263
    2030:	afc21028 	sw	v0,4136(s8)
    2034:	240209bb 	li	v0,2491
    2038:	afc2102c 	sw	v0,4140(s8)
    203c:	24020c64 	li	v0,3172
    2040:	afc21030 	sw	v0,4144(s8)
    2044:	24020025 	li	v0,37
    2048:	afc21034 	sw	v0,4148(s8)
    204c:	24020dd1 	li	v0,3537
    2050:	afc21038 	sw	v0,4152(s8)
    2054:	2402229b 	li	v0,8859
    2058:	afc2103c 	sw	v0,4156(s8)
    205c:	2402227c 	li	v0,8828
    2060:	afc21040 	sw	v0,4160(s8)
    2064:	24020367 	li	v0,871
    2068:	afc21044 	sw	v0,4164(s8)
    206c:	24021c70 	li	v0,7280
    2070:	afc21048 	sw	v0,4168(s8)
    2074:	24021b4b 	li	v0,6987
    2078:	afc2104c 	sw	v0,4172(s8)
    207c:	240216e0 	li	v0,5856
    2080:	afc21050 	sw	v0,4176(s8)
    2084:	240219be 	li	v0,6590
    2088:	afc21054 	sw	v0,4180(s8)
    208c:	24022095 	li	v0,8341
    2090:	afc21058 	sw	v0,4184(s8)
    2094:	24020f82 	li	v0,3970
    2098:	afc2105c 	sw	v0,4188(s8)
    209c:	240214e8 	li	v0,5352
    20a0:	afc21060 	sw	v0,4192(s8)
    20a4:	24021df1 	li	v0,7665
    20a8:	afc21064 	sw	v0,4196(s8)
    20ac:	24021587 	li	v0,5511
    20b0:	afc21068 	sw	v0,4200(s8)
    20b4:	24020bfd 	li	v0,3069
    20b8:	afc2106c 	sw	v0,4204(s8)
    20bc:	2402252d 	li	v0,9517
    20c0:	afc21070 	sw	v0,4208(s8)
    20c4:	24021cc1 	li	v0,7361
    20c8:	afc21074 	sw	v0,4212(s8)
    20cc:	24020c0b 	li	v0,3083
    20d0:	afc21078 	sw	v0,4216(s8)
    20d4:	24020547 	li	v0,1351
    20d8:	afc2107c 	sw	v0,4220(s8)
    20dc:	24021010 	li	v0,4112
    20e0:	afc21080 	sw	v0,4224(s8)
    20e4:	24022454 	li	v0,9300
    20e8:	afc21084 	sw	v0,4228(s8)
    20ec:	2402196a 	li	v0,6506
    20f0:	afc21088 	sw	v0,4232(s8)
    20f4:	24020666 	li	v0,1638
    20f8:	afc2108c 	sw	v0,4236(s8)
    20fc:	2402123b 	li	v0,4667
    2100:	afc21090 	sw	v0,4240(s8)
    2104:	24022494 	li	v0,9364
    2108:	afc21094 	sw	v0,4244(s8)
    210c:	240205d1 	li	v0,1489
    2110:	afc21098 	sw	v0,4248(s8)
    2114:	24020408 	li	v0,1032
    2118:	afc2109c 	sw	v0,4252(s8)
    211c:	2402103a 	li	v0,4154
    2120:	afc210a0 	sw	v0,4256(s8)
    2124:	240217d8 	li	v0,6104
    2128:	afc210a4 	sw	v0,4260(s8)
    212c:	24022693 	li	v0,9875
    2130:	afc210a8 	sw	v0,4264(s8)
    2134:	24020e5f 	li	v0,3679
    2138:	afc210ac 	sw	v0,4268(s8)
    213c:	240217fd 	li	v0,6141
    2140:	afc210b0 	sw	v0,4272(s8)
    2144:	24020d54 	li	v0,3412
    2148:	afc210b4 	sw	v0,4276(s8)
    214c:	240209ea 	li	v0,2538
    2150:	afc210b8 	sw	v0,4280(s8)
    2154:	24021369 	li	v0,4969
    2158:	afc210bc 	sw	v0,4284(s8)
    215c:	2402027c 	li	v0,636
    2160:	afc210c0 	sw	v0,4288(s8)
    2164:	2402181a 	li	v0,6170
    2168:	afc210c4 	sw	v0,4292(s8)
    216c:	240207a4 	li	v0,1956
    2170:	afc210c8 	sw	v0,4296(s8)
    2174:	24020b1c 	li	v0,2844
    2178:	afc210cc 	sw	v0,4300(s8)
    217c:	24020ac8 	li	v0,2760
    2180:	afc210d0 	sw	v0,4304(s8)
    2184:	240219f9 	li	v0,6649
    2188:	afc210d4 	sw	v0,4308(s8)
    218c:	24021a9e 	li	v0,6814
    2190:	afc210d8 	sw	v0,4312(s8)
    2194:	24021171 	li	v0,4465
    2198:	afc210dc 	sw	v0,4316(s8)
    219c:	240210da 	li	v0,4314
    21a0:	afc210e0 	sw	v0,4320(s8)
    21a4:	24020916 	li	v0,2326
    21a8:	afc210e4 	sw	v0,4324(s8)
    21ac:	24020f2e 	li	v0,3886
    21b0:	afc210e8 	sw	v0,4328(s8)
    21b4:	240200b7 	li	v0,183
    21b8:	afc210ec 	sw	v0,4332(s8)
    21bc:	24021797 	li	v0,6039
    21c0:	afc210f0 	sw	v0,4336(s8)
    21c4:	24021b39 	li	v0,6969
    21c8:	afc210f4 	sw	v0,4340(s8)
    21cc:	240205ff 	li	v0,1535
    21d0:	afc210f8 	sw	v0,4344(s8)
    21d4:	24020098 	li	v0,152
    21d8:	afc210fc 	sw	v0,4348(s8)
    21dc:	24020a3d 	li	v0,2621
    21e0:	afc21100 	sw	v0,4352(s8)
    21e4:	24021129 	li	v0,4393
    21e8:	afc21104 	sw	v0,4356(s8)
    21ec:	240206fe 	li	v0,1790
    21f0:	afc21108 	sw	v0,4360(s8)
    21f4:	24021c79 	li	v0,7289
    21f8:	afc2110c 	sw	v0,4364(s8)
    21fc:	2402006d 	li	v0,109
    2200:	afc21110 	sw	v0,4368(s8)
    2204:	2402259f 	li	v0,9631
    2208:	afc21114 	sw	v0,4372(s8)
    220c:	24021241 	li	v0,4673
    2210:	afc21118 	sw	v0,4376(s8)
    2214:	240210a8 	li	v0,4264
    2218:	afc2111c 	sw	v0,4380(s8)
    221c:	24021667 	li	v0,5735
    2220:	afc21120 	sw	v0,4384(s8)
    2224:	240211c4 	li	v0,4548
    2228:	afc21124 	sw	v0,4388(s8)
    222c:	240210c7 	li	v0,4295
    2230:	afc21128 	sw	v0,4392(s8)
    2234:	24020755 	li	v0,1877
    2238:	afc2112c 	sw	v0,4396(s8)
    223c:	240210d9 	li	v0,4313
    2240:	afc21130 	sw	v0,4400(s8)
    2244:	24021ab1 	li	v0,6833
    2248:	afc21134 	sw	v0,4404(s8)
    224c:	24020c7e 	li	v0,3198
    2250:	afc21138 	sw	v0,4408(s8)
    2254:	24021355 	li	v0,4949
    2258:	afc2113c 	sw	v0,4412(s8)
    225c:	2402248b 	li	v0,9355
    2260:	afc21140 	sw	v0,4416(s8)
    2264:	24021423 	li	v0,5155
    2268:	afc21144 	sw	v0,4420(s8)
    226c:	24021e71 	li	v0,7793
    2270:	afc21148 	sw	v0,4424(s8)
    2274:	24022114 	li	v0,8468
    2278:	afc2114c 	sw	v0,4428(s8)
    227c:	24021fdc 	li	v0,8156
    2280:	afc21150 	sw	v0,4432(s8)
    2284:	240203c0 	li	v0,960
    2288:	afc21154 	sw	v0,4436(s8)
    228c:	24020b75 	li	v0,2933
    2290:	afc21158 	sw	v0,4440(s8)
    2294:	24022277 	li	v0,8823
    2298:	afc2115c 	sw	v0,4444(s8)
    229c:	24020cd6 	li	v0,3286
    22a0:	afc21160 	sw	v0,4448(s8)
    22a4:	24020c63 	li	v0,3171
    22a8:	afc21164 	sw	v0,4452(s8)
    22ac:	240214ee 	li	v0,5358
    22b0:	afc21168 	sw	v0,4456(s8)
    22b4:	2402162d 	li	v0,5677
    22b8:	afc2116c 	sw	v0,4460(s8)
    22bc:	2402008c 	li	v0,140
    22c0:	afc21170 	sw	v0,4464(s8)
    22c4:	24020cad 	li	v0,3245
    22c8:	afc21174 	sw	v0,4468(s8)
    22cc:	24020885 	li	v0,2181
    22d0:	afc21178 	sw	v0,4472(s8)
    22d4:	24020ac9 	li	v0,2761
    22d8:	afc2117c 	sw	v0,4476(s8)
    22dc:	24020f96 	li	v0,3990
    22e0:	afc21180 	sw	v0,4480(s8)
    22e4:	24020143 	li	v0,323
    22e8:	afc21184 	sw	v0,4484(s8)
    22ec:	24020032 	li	v0,50
    22f0:	afc21188 	sw	v0,4488(s8)
    22f4:	24021004 	li	v0,4100
    22f8:	afc2118c 	sw	v0,4492(s8)
    22fc:	240226e2 	li	v0,9954
    2300:	afc21190 	sw	v0,4496(s8)
    2304:	24020433 	li	v0,1075
    2308:	afc21194 	sw	v0,4500(s8)
    230c:	240220ac 	li	v0,8364
    2310:	afc21198 	sw	v0,4504(s8)
    2314:	240207fa 	li	v0,2042
    2318:	afc2119c 	sw	v0,4508(s8)
    231c:	240215f8 	li	v0,5624
    2320:	afc211a0 	sw	v0,4512(s8)
    2324:	24020a63 	li	v0,2659
    2328:	afc211a4 	sw	v0,4516(s8)
    232c:	24020f4f 	li	v0,3919
    2330:	afc211a8 	sw	v0,4520(s8)
    2334:	24021891 	li	v0,6289
    2338:	afc211ac 	sw	v0,4524(s8)
    233c:	240216d4 	li	v0,5844
    2340:	afc211b0 	sw	v0,4528(s8)
    2344:	24020d8d 	li	v0,3469
    2348:	afc211b4 	sw	v0,4532(s8)
    234c:	240204d6 	li	v0,1238
    2350:	afc211b8 	sw	v0,4536(s8)
    2354:	2402060f 	li	v0,1551
    2358:	afc211bc 	sw	v0,4540(s8)
    235c:	24021370 	li	v0,4976
    2360:	afc211c0 	sw	v0,4544(s8)
    2364:	24021507 	li	v0,5383
    2368:	afc211c4 	sw	v0,4548(s8)
    236c:	24020013 	li	v0,19
    2370:	afc211c8 	sw	v0,4552(s8)
    2374:	24020c3d 	li	v0,3133
    2378:	afc211cc 	sw	v0,4556(s8)
    237c:	240218c7 	li	v0,6343
    2380:	afc211d0 	sw	v0,4560(s8)
    2384:	24022458 	li	v0,9304
    2388:	afc211d4 	sw	v0,4564(s8)
    238c:	240207a4 	li	v0,1956
    2390:	afc211d8 	sw	v0,4568(s8)
    2394:	2402175d 	li	v0,5981
    2398:	afc211dc 	sw	v0,4572(s8)
    239c:	240209ab 	li	v0,2475
    23a0:	afc211e0 	sw	v0,4576(s8)
    23a4:	24020e52 	li	v0,3666
    23a8:	afc211e4 	sw	v0,4580(s8)
    23ac:	24021f4b 	li	v0,8011
    23b0:	afc211e8 	sw	v0,4584(s8)
    23b4:	24022307 	li	v0,8967
    23b8:	afc211ec 	sw	v0,4588(s8)
    23bc:	24021b00 	li	v0,6912
    23c0:	afc211f0 	sw	v0,4592(s8)
    23c4:	240200c0 	li	v0,192
    23c8:	afc211f4 	sw	v0,4596(s8)
    23cc:	240206c1 	li	v0,1729
    23d0:	afc211f8 	sw	v0,4600(s8)
    23d4:	24020386 	li	v0,902
    23d8:	afc211fc 	sw	v0,4604(s8)
    23dc:	24021ad4 	li	v0,6868
    23e0:	afc21200 	sw	v0,4608(s8)
    23e4:	24021fc3 	li	v0,8131
    23e8:	afc21204 	sw	v0,4612(s8)
    23ec:	2402138a 	li	v0,5002
    23f0:	afc21208 	sw	v0,4616(s8)
    23f4:	24020c66 	li	v0,3174
    23f8:	afc2120c 	sw	v0,4620(s8)
    23fc:	240223f7 	li	v0,9207
    2400:	afc21210 	sw	v0,4624(s8)
    2404:	240225f6 	li	v0,9718
    2408:	afc21214 	sw	v0,4628(s8)
    240c:	24021460 	li	v0,5216
    2410:	afc21218 	sw	v0,4632(s8)
    2414:	2402049f 	li	v0,1183
    2418:	afc2121c 	sw	v0,4636(s8)
    241c:	24020949 	li	v0,2377
    2420:	afc21220 	sw	v0,4640(s8)
    2424:	2402156f 	li	v0,5487
    2428:	afc21224 	sw	v0,4644(s8)
    242c:	24021d30 	li	v0,7472
    2430:	afc21228 	sw	v0,4648(s8)
    2434:	240211dd 	li	v0,4573
    2438:	afc2122c 	sw	v0,4652(s8)
    243c:	240222fd 	li	v0,8957
    2440:	afc21230 	sw	v0,4656(s8)
    2444:	240213c6 	li	v0,5062
    2448:	afc21234 	sw	v0,4660(s8)
    244c:	240217ed 	li	v0,6125
    2450:	afc21238 	sw	v0,4664(s8)
    2454:	24020f5d 	li	v0,3933
    2458:	afc2123c 	sw	v0,4668(s8)
    245c:	24021a8d 	li	v0,6797
    2460:	afc21240 	sw	v0,4672(s8)
    2464:	240209c0 	li	v0,2496
    2468:	afc21244 	sw	v0,4676(s8)
    246c:	24020d5a 	li	v0,3418
    2470:	afc21248 	sw	v0,4680(s8)
    2474:	24020c45 	li	v0,3141
    2478:	afc2124c 	sw	v0,4684(s8)
    247c:	24021fd9 	li	v0,8153
    2480:	afc21250 	sw	v0,4688(s8)
    2484:	240206be 	li	v0,1726
    2488:	afc21254 	sw	v0,4692(s8)
    248c:	24021562 	li	v0,5474
    2490:	afc21258 	sw	v0,4696(s8)
    2494:	24021b44 	li	v0,6980
    2498:	afc2125c 	sw	v0,4700(s8)
    249c:	24021511 	li	v0,5393
    24a0:	afc21260 	sw	v0,4704(s8)
    24a4:	24020d9d 	li	v0,3485
    24a8:	afc21264 	sw	v0,4708(s8)
    24ac:	2402173c 	li	v0,5948
    24b0:	afc21268 	sw	v0,4712(s8)
    24b4:	24020901 	li	v0,2305
    24b8:	afc2126c 	sw	v0,4716(s8)
    24bc:	2402001e 	li	v0,30
    24c0:	afc21270 	sw	v0,4720(s8)
    24c4:	24020fbd 	li	v0,4029
    24c8:	afc21274 	sw	v0,4724(s8)
    24cc:	24022557 	li	v0,9559
    24d0:	afc21278 	sw	v0,4728(s8)
    24d4:	24021af2 	li	v0,6898
    24d8:	afc2127c 	sw	v0,4732(s8)
    24dc:	24020870 	li	v0,2160
    24e0:	afc21280 	sw	v0,4736(s8)
    24e4:	240211d2 	li	v0,4562
    24e8:	afc21284 	sw	v0,4740(s8)
    24ec:	24021918 	li	v0,6424
    24f0:	afc21288 	sw	v0,4744(s8)
    24f4:	24021e27 	li	v0,7719
    24f8:	afc2128c 	sw	v0,4748(s8)
    24fc:	240210b8 	li	v0,4280
    2500:	afc21290 	sw	v0,4752(s8)
    2504:	24020669 	li	v0,1641
    2508:	afc21294 	sw	v0,4756(s8)
    250c:	240222c6 	li	v0,8902
    2510:	afc21298 	sw	v0,4760(s8)
    2514:	24020bc2 	li	v0,3010
    2518:	afc2129c 	sw	v0,4764(s8)
    251c:	24020d98 	li	v0,3480
    2520:	afc212a0 	sw	v0,4768(s8)
    2524:	24020aa6 	li	v0,2726
    2528:	afc212a4 	sw	v0,4772(s8)
    252c:	24021d9f 	li	v0,7583
    2530:	afc212a8 	sw	v0,4776(s8)
    2534:	24022255 	li	v0,8789
    2538:	afc212ac 	sw	v0,4780(s8)
    253c:	2402102c 	li	v0,4140
    2540:	afc212b0 	sw	v0,4784(s8)
    2544:	24020e7c 	li	v0,3708
    2548:	afc212b4 	sw	v0,4788(s8)
    254c:	24020aa3 	li	v0,2723
    2550:	afc212b8 	sw	v0,4792(s8)
    2554:	240203aa 	li	v0,938
    2558:	afc212bc 	sw	v0,4796(s8)
    255c:	240209fd 	li	v0,2557
    2560:	afc212c0 	sw	v0,4800(s8)
    2564:	240209bd 	li	v0,2493
    2568:	afc212c4 	sw	v0,4804(s8)
    256c:	240201af 	li	v0,431
    2570:	afc212c8 	sw	v0,4808(s8)
    2574:	240202c6 	li	v0,710
    2578:	afc212cc 	sw	v0,4812(s8)
    257c:	2402107c 	li	v0,4220
    2580:	afc212d0 	sw	v0,4816(s8)
    2584:	24021711 	li	v0,5905
    2588:	afc212d4 	sw	v0,4820(s8)
    258c:	24021e0a 	li	v0,7690
    2590:	afc212d8 	sw	v0,4824(s8)
    2594:	2402258d 	li	v0,9613
    2598:	afc212dc 	sw	v0,4828(s8)
    259c:	240224af 	li	v0,9391
    25a0:	afc212e0 	sw	v0,4832(s8)
    25a4:	24020e36 	li	v0,3638
    25a8:	afc212e4 	sw	v0,4836(s8)
    25ac:	2402204e 	li	v0,8270
    25b0:	afc212e8 	sw	v0,4840(s8)
    25b4:	240224cd 	li	v0,9421
    25b8:	afc212ec 	sw	v0,4844(s8)
    25bc:	24021df3 	li	v0,7667
    25c0:	afc212f0 	sw	v0,4848(s8)
    25c4:	24021e95 	li	v0,7829
    25c8:	afc212f4 	sw	v0,4852(s8)
    25cc:	24020a6f 	li	v0,2671
    25d0:	afc212f8 	sw	v0,4856(s8)
    25d4:	24021824 	li	v0,6180
    25d8:	afc212fc 	sw	v0,4860(s8)
    25dc:	24022227 	li	v0,8743
    25e0:	afc21300 	sw	v0,4864(s8)
    25e4:	24022387 	li	v0,9095
    25e8:	afc21304 	sw	v0,4868(s8)
    25ec:	24020f3b 	li	v0,3899
    25f0:	afc21308 	sw	v0,4872(s8)
    25f4:	24020bd0 	li	v0,3024
    25f8:	afc2130c 	sw	v0,4876(s8)
    25fc:	24021bb0 	li	v0,7088
    2600:	afc21310 	sw	v0,4880(s8)
    2604:	240223c2 	li	v0,9154
    2608:	afc21314 	sw	v0,4884(s8)
    260c:	24020952 	li	v0,2386
    2610:	afc21318 	sw	v0,4888(s8)
    2614:	24020239 	li	v0,569
    2618:	afc2131c 	sw	v0,4892(s8)
    261c:	24022028 	li	v0,8232
    2620:	afc21320 	sw	v0,4896(s8)
    2624:	240226f1 	li	v0,9969
    2628:	afc21324 	sw	v0,4900(s8)
    262c:	2402164e 	li	v0,5710
    2630:	afc21328 	sw	v0,4904(s8)
    2634:	24020945 	li	v0,2373
    2638:	afc2132c 	sw	v0,4908(s8)
    263c:	2402001e 	li	v0,30
    2640:	afc21330 	sw	v0,4912(s8)
    2644:	240220f1 	li	v0,8433
    2648:	afc21334 	sw	v0,4916(s8)
    264c:	240225bf 	li	v0,9663
    2650:	afc21338 	sw	v0,4920(s8)
    2654:	24020a1b 	li	v0,2587
    2658:	afc2133c 	sw	v0,4924(s8)
    265c:	24021c6f 	li	v0,7279
    2660:	afc21340 	sw	v0,4928(s8)
    2664:	2402005e 	li	v0,94
    2668:	afc21344 	sw	v0,4932(s8)
    266c:	240225b1 	li	v0,9649
    2670:	afc21348 	sw	v0,4936(s8)
    2674:	240205db 	li	v0,1499
    2678:	afc2134c 	sw	v0,4940(s8)
    267c:	2402092f 	li	v0,2351
    2680:	afc21350 	sw	v0,4944(s8)
    2684:	24021cab 	li	v0,7339
    2688:	afc21354 	sw	v0,4948(s8)
    268c:	24021d28 	li	v0,7464
    2690:	afc21358 	sw	v0,4952(s8)
    2694:	240206ce 	li	v0,1742
    2698:	afc2135c 	sw	v0,4956(s8)
    269c:	24021ca2 	li	v0,7330
    26a0:	afc21360 	sw	v0,4960(s8)
    26a4:	24020826 	li	v0,2086
    26a8:	afc21364 	sw	v0,4964(s8)
    26ac:	24021d5b 	li	v0,7515
    26b0:	afc21368 	sw	v0,4968(s8)
    26b4:	24020545 	li	v0,1349
    26b8:	afc2136c 	sw	v0,4972(s8)
    26bc:	240226bb 	li	v0,9915
    26c0:	afc21370 	sw	v0,4976(s8)
    26c4:	240200ba 	li	v0,186
    26c8:	afc21374 	sw	v0,4980(s8)
    26cc:	24020f29 	li	v0,3881
    26d0:	afc21378 	sw	v0,4984(s8)
    26d4:	24021393 	li	v0,5011
    26d8:	afc2137c 	sw	v0,4988(s8)
    26dc:	24021602 	li	v0,5634
    26e0:	afc21380 	sw	v0,4992(s8)
    26e4:	24021025 	li	v0,4133
    26e8:	afc21384 	sw	v0,4996(s8)
    26ec:	24021123 	li	v0,4387
    26f0:	afc21388 	sw	v0,5000(s8)
    26f4:	24020aa2 	li	v0,2722
    26f8:	afc2138c 	sw	v0,5004(s8)
    26fc:	24020cd7 	li	v0,3287
    2700:	afc21390 	sw	v0,5008(s8)
    2704:	24021a75 	li	v0,6773
    2708:	afc21394 	sw	v0,5012(s8)
    270c:	240225ab 	li	v0,9643
    2710:	afc21398 	sw	v0,5016(s8)
    2714:	240205ef 	li	v0,1519
    2718:	afc2139c 	sw	v0,5020(s8)
    271c:	24021a56 	li	v0,6742
    2720:	afc213a0 	sw	v0,5024(s8)
    2724:	240214ea 	li	v0,5354
    2728:	afc213a4 	sw	v0,5028(s8)
    272c:	240200f4 	li	v0,244
    2730:	afc213a8 	sw	v0,5032(s8)
    2734:	24020c34 	li	v0,3124
    2738:	afc213ac 	sw	v0,5036(s8)
    273c:	2402008b 	li	v0,139
    2740:	afc213b0 	sw	v0,5040(s8)
    2744:	24021873 	li	v0,6259
    2748:	afc213b4 	sw	v0,5044(s8)
    274c:	2402080f 	li	v0,2063
    2750:	afc213b8 	sw	v0,5048(s8)
    2754:	24021cfa 	li	v0,7418
    2758:	afc213bc 	sw	v0,5052(s8)
    275c:	240218d1 	li	v0,6353
    2760:	afc213c0 	sw	v0,5056(s8)
    2764:	240206b0 	li	v0,1712
    2768:	afc213c4 	sw	v0,5060(s8)
    276c:	24021495 	li	v0,5269
    2770:	afc213c8 	sw	v0,5064(s8)
    2774:	24022201 	li	v0,8705
    2778:	afc213cc 	sw	v0,5068(s8)
    277c:	2402151c 	li	v0,5404
    2780:	afc213d0 	sw	v0,5072(s8)
    2784:	24020aad 	li	v0,2733
    2788:	afc213d4 	sw	v0,5076(s8)
    278c:	24021a8f 	li	v0,6799
    2790:	afc213d8 	sw	v0,5080(s8)
    2794:	24020aae 	li	v0,2734
    2798:	afc213dc 	sw	v0,5084(s8)
    279c:	240212d3 	li	v0,4819
    27a0:	afc213e0 	sw	v0,5088(s8)
    27a4:	240210db 	li	v0,4315
    27a8:	afc213e4 	sw	v0,5092(s8)
    27ac:	240201b3 	li	v0,435
    27b0:	afc213e8 	sw	v0,5096(s8)
    27b4:	2402043f 	li	v0,1087
    27b8:	afc213ec 	sw	v0,5100(s8)
    27bc:	24020355 	li	v0,853
    27c0:	afc213f0 	sw	v0,5104(s8)
    27c4:	2402029d 	li	v0,669
    27c8:	afc213f4 	sw	v0,5108(s8)
    27cc:	24020992 	li	v0,2450
    27d0:	afc213f8 	sw	v0,5112(s8)
    27d4:	24021957 	li	v0,6487
    27d8:	afc213fc 	sw	v0,5116(s8)
    27dc:	240212c2 	li	v0,4802
    27e0:	afc21400 	sw	v0,5120(s8)
    27e4:	24021ab5 	li	v0,6837
    27e8:	afc21404 	sw	v0,5124(s8)
    27ec:	240215ba 	li	v0,5562
    27f0:	afc21408 	sw	v0,5128(s8)
    27f4:	24021f99 	li	v0,8089
    27f8:	afc2140c 	sw	v0,5132(s8)
    27fc:	24020e1a 	li	v0,3610
    2800:	afc21410 	sw	v0,5136(s8)
    2804:	24021455 	li	v0,5205
    2808:	afc21414 	sw	v0,5140(s8)
    280c:	24021748 	li	v0,5960
    2810:	afc21418 	sw	v0,5144(s8)
    2814:	24021a30 	li	v0,6704
    2818:	afc2141c 	sw	v0,5148(s8)
    281c:	24021aff 	li	v0,6911
    2820:	afc21420 	sw	v0,5152(s8)
    2824:	240209fd 	li	v0,2557
    2828:	afc21424 	sw	v0,5156(s8)
    282c:	24022665 	li	v0,9829
    2830:	afc21428 	sw	v0,5160(s8)
    2834:	24020d4b 	li	v0,3403
    2838:	afc2142c 	sw	v0,5164(s8)
    283c:	24022270 	li	v0,8816
    2840:	afc21430 	sw	v0,5168(s8)
    2844:	24020764 	li	v0,1892
    2848:	afc21434 	sw	v0,5172(s8)
    284c:	24020335 	li	v0,821
    2850:	afc21438 	sw	v0,5176(s8)
    2854:	240205f2 	li	v0,1522
    2858:	afc2143c 	sw	v0,5180(s8)
    285c:	24020e15 	li	v0,3605
    2860:	afc21440 	sw	v0,5184(s8)
    2864:	2402098b 	li	v0,2443
    2868:	afc21444 	sw	v0,5188(s8)
    286c:	240219b3 	li	v0,6579
    2870:	afc21448 	sw	v0,5192(s8)
    2874:	240214f1 	li	v0,5361
    2878:	afc2144c 	sw	v0,5196(s8)
    287c:	240205f8 	li	v0,1528
    2880:	afc21450 	sw	v0,5200(s8)
    2884:	24020d32 	li	v0,3378
    2888:	afc21454 	sw	v0,5204(s8)
    288c:	2402115f 	li	v0,4447
    2890:	afc21458 	sw	v0,5208(s8)
    2894:	24020a8c 	li	v0,2700
    2898:	afc2145c 	sw	v0,5212(s8)
    289c:	24020fcd 	li	v0,4045
    28a0:	afc21460 	sw	v0,5216(s8)
    28a4:	24021312 	li	v0,4882
    28a8:	afc21464 	sw	v0,5220(s8)
    28ac:	24020ecb 	li	v0,3787
    28b0:	afc21468 	sw	v0,5224(s8)
    28b4:	24021323 	li	v0,4899
    28b8:	afc2146c 	sw	v0,5228(s8)
    28bc:	240215af 	li	v0,5551
    28c0:	afc21470 	sw	v0,5232(s8)
    28c4:	24020a1d 	li	v0,2589
    28c8:	afc21474 	sw	v0,5236(s8)
    28cc:	2402056a 	li	v0,1386
    28d0:	afc21478 	sw	v0,5240(s8)
    28d4:	24020161 	li	v0,353
    28d8:	afc2147c 	sw	v0,5244(s8)
    28dc:	240224d2 	li	v0,9426
    28e0:	afc21480 	sw	v0,5248(s8)
    28e4:	24021b24 	li	v0,6948
    28e8:	afc21484 	sw	v0,5252(s8)
    28ec:	240212ba 	li	v0,4794
    28f0:	afc21488 	sw	v0,5256(s8)
    28f4:	24020bdc 	li	v0,3036
    28f8:	afc2148c 	sw	v0,5260(s8)
    28fc:	2402213a 	li	v0,8506
    2900:	afc21490 	sw	v0,5264(s8)
    2904:	24021bc3 	li	v0,7107
    2908:	afc21494 	sw	v0,5268(s8)
    290c:	240217cc 	li	v0,6092
    2910:	afc21498 	sw	v0,5272(s8)
    2914:	24021529 	li	v0,5417
    2918:	afc2149c 	sw	v0,5276(s8)
    291c:	240225c0 	li	v0,9664
    2920:	afc214a0 	sw	v0,5280(s8)
    2924:	24021721 	li	v0,5921
    2928:	afc214a4 	sw	v0,5284(s8)
    292c:	24022274 	li	v0,8820
    2930:	afc214a8 	sw	v0,5288(s8)
    2934:	24022120 	li	v0,8480
    2938:	afc214ac 	sw	v0,5292(s8)
    293c:	24021046 	li	v0,4166
    2940:	afc214b0 	sw	v0,5296(s8)
    2944:	2402176a 	li	v0,5994
    2948:	afc214b4 	sw	v0,5300(s8)
    294c:	240218d2 	li	v0,6354
    2950:	afc214b8 	sw	v0,5304(s8)
    2954:	2402101b 	li	v0,4123
    2958:	afc214bc 	sw	v0,5308(s8)
    295c:	240220f5 	li	v0,8437
    2960:	afc214c0 	sw	v0,5312(s8)
    2964:	24020b75 	li	v0,2933
    2968:	afc214c4 	sw	v0,5316(s8)
    296c:	2402250c 	li	v0,9484
    2970:	afc214c8 	sw	v0,5320(s8)
    2974:	240218ad 	li	v0,6317
    2978:	afc214cc 	sw	v0,5324(s8)
    297c:	240218a8 	li	v0,6312
    2980:	afc214d0 	sw	v0,5328(s8)
    2984:	24020f5b 	li	v0,3931
    2988:	afc214d4 	sw	v0,5332(s8)
    298c:	24022339 	li	v0,9017
    2990:	afc214d8 	sw	v0,5336(s8)
    2994:	24021a35 	li	v0,6709
    2998:	afc214dc 	sw	v0,5340(s8)
    299c:	2402142d 	li	v0,5165
    29a0:	afc214e0 	sw	v0,5344(s8)
    29a4:	240223c4 	li	v0,9156
    29a8:	afc214e4 	sw	v0,5348(s8)
    29ac:	24020648 	li	v0,1608
    29b0:	afc214e8 	sw	v0,5352(s8)
    29b4:	24021b9d 	li	v0,7069
    29b8:	afc214ec 	sw	v0,5356(s8)
    29bc:	240206d1 	li	v0,1745
    29c0:	afc214f0 	sw	v0,5360(s8)
    29c4:	24020bb3 	li	v0,2995
    29c8:	afc214f4 	sw	v0,5364(s8)
    29cc:	24021cfe 	li	v0,7422
    29d0:	afc214f8 	sw	v0,5368(s8)
    29d4:	24020493 	li	v0,1171
    29d8:	afc214fc 	sw	v0,5372(s8)
    29dc:	24021897 	li	v0,6295
    29e0:	afc21500 	sw	v0,5376(s8)
    29e4:	24022179 	li	v0,8569
    29e8:	afc21504 	sw	v0,5380(s8)
    29ec:	2402022f 	li	v0,559
    29f0:	afc21508 	sw	v0,5384(s8)
    29f4:	240212c1 	li	v0,4801
    29f8:	afc2150c 	sw	v0,5388(s8)
    29fc:	2402162c 	li	v0,5676
    2a00:	afc21510 	sw	v0,5392(s8)
    2a04:	240219fc 	li	v0,6652
    2a08:	afc21514 	sw	v0,5396(s8)
    2a0c:	240219ab 	li	v0,6571
    2a10:	afc21518 	sw	v0,5400(s8)
    2a14:	240214dc 	li	v0,5340
    2a18:	afc2151c 	sw	v0,5404(s8)
    2a1c:	240222dd 	li	v0,8925
    2a20:	afc21520 	sw	v0,5408(s8)
    2a24:	240206cf 	li	v0,1743
    2a28:	afc21524 	sw	v0,5412(s8)
    2a2c:	240200ac 	li	v0,172
    2a30:	afc21528 	sw	v0,5416(s8)
    2a34:	24020c13 	li	v0,3091
    2a38:	afc2152c 	sw	v0,5420(s8)
    2a3c:	24020ff9 	li	v0,4089
    2a40:	afc21530 	sw	v0,5424(s8)
    2a44:	2402197f 	li	v0,6527
    2a48:	afc21534 	sw	v0,5428(s8)
    2a4c:	24020dee 	li	v0,3566
    2a50:	afc21538 	sw	v0,5432(s8)
    2a54:	240222ae 	li	v0,8878
    2a58:	afc2153c 	sw	v0,5436(s8)
    2a5c:	240216b4 	li	v0,5812
    2a60:	afc21540 	sw	v0,5440(s8)
    2a64:	24020bea 	li	v0,3050
    2a68:	afc21544 	sw	v0,5444(s8)
    2a6c:	2402144c 	li	v0,5196
    2a70:	afc21548 	sw	v0,5448(s8)
    2a74:	2402084c 	li	v0,2124
    2a78:	afc2154c 	sw	v0,5452(s8)
    2a7c:	24020d05 	li	v0,3333
    2a80:	afc21550 	sw	v0,5456(s8)
    2a84:	24021075 	li	v0,4213
    2a88:	afc21554 	sw	v0,5460(s8)
    2a8c:	24021442 	li	v0,5186
    2a90:	afc21558 	sw	v0,5464(s8)
    2a94:	24022133 	li	v0,8499
    2a98:	afc2155c 	sw	v0,5468(s8)
    2a9c:	24020d2a 	li	v0,3370
    2aa0:	afc21560 	sw	v0,5472(s8)
    2aa4:	24021a8a 	li	v0,6794
    2aa8:	afc21564 	sw	v0,5476(s8)
    2aac:	240215c0 	li	v0,5568
    2ab0:	afc21568 	sw	v0,5480(s8)
    2ab4:	240213fb 	li	v0,5115
    2ab8:	afc2156c 	sw	v0,5484(s8)
    2abc:	240217fd 	li	v0,6141
    2ac0:	afc21570 	sw	v0,5488(s8)
    2ac4:	2402247e 	li	v0,9342
    2ac8:	afc21574 	sw	v0,5492(s8)
    2acc:	24020a4f 	li	v0,2639
    2ad0:	afc21578 	sw	v0,5496(s8)
    2ad4:	24020985 	li	v0,2437
    2ad8:	afc2157c 	sw	v0,5500(s8)
    2adc:	240210a7 	li	v0,4263
    2ae0:	afc21580 	sw	v0,5504(s8)
    2ae4:	24020c7e 	li	v0,3198
    2ae8:	afc21584 	sw	v0,5508(s8)
    2aec:	24020e06 	li	v0,3590
    2af0:	afc21588 	sw	v0,5512(s8)
    2af4:	240226d3 	li	v0,9939
    2af8:	afc2158c 	sw	v0,5516(s8)
    2afc:	2402183a 	li	v0,6202
    2b00:	afc21590 	sw	v0,5520(s8)
    2b04:	24021971 	li	v0,6513
    2b08:	afc21594 	sw	v0,5524(s8)
    2b0c:	2402065f 	li	v0,1631
    2b10:	afc21598 	sw	v0,5528(s8)
    2b14:	24021408 	li	v0,5128
    2b18:	afc2159c 	sw	v0,5532(s8)
    2b1c:	24022041 	li	v0,8257
    2b20:	afc215a0 	sw	v0,5536(s8)
    2b24:	2402070c 	li	v0,1804
    2b28:	afc215a4 	sw	v0,5540(s8)
    2b2c:	240211db 	li	v0,4571
    2b30:	afc215a8 	sw	v0,5544(s8)
    2b34:	2402092a 	li	v0,2346
    2b38:	afc215ac 	sw	v0,5548(s8)
    2b3c:	2402124b 	li	v0,4683
    2b40:	afc215b0 	sw	v0,5552(s8)
    2b44:	24021fca 	li	v0,8138
    2b48:	afc215b4 	sw	v0,5556(s8)
    2b4c:	240204c9 	li	v0,1225
    2b50:	afc215b8 	sw	v0,5560(s8)
    2b54:	240201ef 	li	v0,495
    2b58:	afc215bc 	sw	v0,5564(s8)
    2b5c:	24021d74 	li	v0,7540
    2b60:	afc215c0 	sw	v0,5568(s8)
    2b64:	24021915 	li	v0,6421
    2b68:	afc215c4 	sw	v0,5572(s8)
    2b6c:	2402230c 	li	v0,8972
    2b70:	afc215c8 	sw	v0,5576(s8)
    2b74:	24021c3a 	li	v0,7226
    2b78:	afc215cc 	sw	v0,5580(s8)
    2b7c:	2402027a 	li	v0,634
    2b80:	afc215d0 	sw	v0,5584(s8)
    2b84:	2402103e 	li	v0,4158
    2b88:	afc215d4 	sw	v0,5588(s8)
    2b8c:	2402165d 	li	v0,5725
    2b90:	afc215d8 	sw	v0,5592(s8)
    2b94:	24020164 	li	v0,356
    2b98:	afc215dc 	sw	v0,5596(s8)
    2b9c:	240203b8 	li	v0,952
    2ba0:	afc215e0 	sw	v0,5600(s8)
    2ba4:	24021ddd 	li	v0,7645
    2ba8:	afc215e4 	sw	v0,5604(s8)
    2bac:	24021560 	li	v0,5472
    2bb0:	afc215e8 	sw	v0,5608(s8)
    2bb4:	24020d76 	li	v0,3446
    2bb8:	afc215ec 	sw	v0,5612(s8)
    2bbc:	24020d0b 	li	v0,3339
    2bc0:	afc215f0 	sw	v0,5616(s8)
    2bc4:	24021faf 	li	v0,8111
    2bc8:	afc215f4 	sw	v0,5620(s8)
    2bcc:	240216fb 	li	v0,5883
    2bd0:	afc215f8 	sw	v0,5624(s8)
    2bd4:	24021db3 	li	v0,7603
    2bd8:	afc215fc 	sw	v0,5628(s8)
    2bdc:	24021ded 	li	v0,7661
    2be0:	afc21600 	sw	v0,5632(s8)
    2be4:	240216c1 	li	v0,5825
    2be8:	afc21604 	sw	v0,5636(s8)
    2bec:	24021d76 	li	v0,7542
    2bf0:	afc21608 	sw	v0,5640(s8)
    2bf4:	240200d8 	li	v0,216
    2bf8:	afc2160c 	sw	v0,5644(s8)
    2bfc:	24020923 	li	v0,2339
    2c00:	afc21610 	sw	v0,5648(s8)
    2c04:	240223d6 	li	v0,9174
    2c08:	afc21614 	sw	v0,5652(s8)
    2c0c:	240214e0 	li	v0,5344
    2c10:	afc21618 	sw	v0,5656(s8)
    2c14:	24020254 	li	v0,596
    2c18:	afc2161c 	sw	v0,5660(s8)
    2c1c:	24021ca2 	li	v0,7330
    2c20:	afc21620 	sw	v0,5664(s8)
    2c24:	2402187b 	li	v0,6267
    2c28:	afc21624 	sw	v0,5668(s8)
    2c2c:	2402244e 	li	v0,9294
    2c30:	afc21628 	sw	v0,5672(s8)
    2c34:	240207dd 	li	v0,2013
    2c38:	afc2162c 	sw	v0,5676(s8)
    2c3c:	240202f5 	li	v0,757
    2c40:	afc21630 	sw	v0,5680(s8)
    2c44:	24020207 	li	v0,519
    2c48:	afc21634 	sw	v0,5684(s8)
    2c4c:	2402229c 	li	v0,8860
    2c50:	afc21638 	sw	v0,5688(s8)
    2c54:	2402122a 	li	v0,4650
    2c58:	afc2163c 	sw	v0,5692(s8)
    2c5c:	24020cdc 	li	v0,3292
    2c60:	afc21640 	sw	v0,5696(s8)
    2c64:	24021e98 	li	v0,7832
    2c68:	afc21644 	sw	v0,5700(s8)
    2c6c:	24020754 	li	v0,1876
    2c70:	afc21648 	sw	v0,5704(s8)
    2c74:	24020117 	li	v0,279
    2c78:	afc2164c 	sw	v0,5708(s8)
    2c7c:	240207c6 	li	v0,1990
    2c80:	afc21650 	sw	v0,5712(s8)
    2c84:	24020f71 	li	v0,3953
    2c88:	afc21654 	sw	v0,5716(s8)
    2c8c:	2402027b 	li	v0,635
    2c90:	afc21658 	sw	v0,5720(s8)
    2c94:	2402244f 	li	v0,9295
    2c98:	afc2165c 	sw	v0,5724(s8)
    2c9c:	2402063e 	li	v0,1598
    2ca0:	afc21660 	sw	v0,5728(s8)
    2ca4:	240217db 	li	v0,6107
    2ca8:	afc21664 	sw	v0,5732(s8)
    2cac:	24020ab5 	li	v0,2741
    2cb0:	afc21668 	sw	v0,5736(s8)
    2cb4:	24021349 	li	v0,4937
    2cb8:	afc2166c 	sw	v0,5740(s8)
    2cbc:	2402023a 	li	v0,570
    2cc0:	afc21670 	sw	v0,5744(s8)
    2cc4:	24021370 	li	v0,4976
    2cc8:	afc21674 	sw	v0,5748(s8)
    2ccc:	240209ec 	li	v0,2540
    2cd0:	afc21678 	sw	v0,5752(s8)
    2cd4:	240211e8 	li	v0,4584
    2cd8:	afc2167c 	sw	v0,5756(s8)
    2cdc:	24020321 	li	v0,801
    2ce0:	afc21680 	sw	v0,5760(s8)
    2ce4:	24020053 	li	v0,83
    2ce8:	afc21684 	sw	v0,5764(s8)
    2cec:	240212c0 	li	v0,4800
    2cf0:	afc21688 	sw	v0,5768(s8)
    2cf4:	24022514 	li	v0,9492
    2cf8:	afc2168c 	sw	v0,5772(s8)
    2cfc:	240215e9 	li	v0,5609
    2d00:	afc21690 	sw	v0,5776(s8)
    2d04:	24021960 	li	v0,6496
    2d08:	afc21694 	sw	v0,5780(s8)
    2d0c:	24021928 	li	v0,6440
    2d10:	afc21698 	sw	v0,5784(s8)
    2d14:	24020b7b 	li	v0,2939
    2d18:	afc2169c 	sw	v0,5788(s8)
    2d1c:	24020acb 	li	v0,2763
    2d20:	afc216a0 	sw	v0,5792(s8)
    2d24:	24021667 	li	v0,5735
    2d28:	afc216a4 	sw	v0,5796(s8)
    2d2c:	24020518 	li	v0,1304
    2d30:	afc216a8 	sw	v0,5800(s8)
    2d34:	24022691 	li	v0,9873
    2d38:	afc216ac 	sw	v0,5804(s8)
    2d3c:	24020a2e 	li	v0,2606
    2d40:	afc216b0 	sw	v0,5808(s8)
    2d44:	240200a4 	li	v0,164
    2d48:	afc216b4 	sw	v0,5812(s8)
    2d4c:	240211ab 	li	v0,4523
    2d50:	afc216b8 	sw	v0,5816(s8)
    2d54:	240208cb 	li	v0,2251
    2d58:	afc216bc 	sw	v0,5820(s8)
    2d5c:	240210fd 	li	v0,4349
    2d60:	afc216c0 	sw	v0,5824(s8)
    2d64:	24020abf 	li	v0,2751
    2d68:	afc216c4 	sw	v0,5828(s8)
    2d6c:	240209e2 	li	v0,2530
    2d70:	afc216c8 	sw	v0,5832(s8)
    2d74:	240218c3 	li	v0,6339
    2d78:	afc216cc 	sw	v0,5836(s8)
    2d7c:	24021a30 	li	v0,6704
    2d80:	afc216d0 	sw	v0,5840(s8)
    2d84:	24020c5d 	li	v0,3165
    2d88:	afc216d4 	sw	v0,5844(s8)
    2d8c:	240207c2 	li	v0,1986
    2d90:	afc216d8 	sw	v0,5848(s8)
    2d94:	2402206e 	li	v0,8302
    2d98:	afc216dc 	sw	v0,5852(s8)
    2d9c:	240215f9 	li	v0,5625
    2da0:	afc216e0 	sw	v0,5856(s8)
    2da4:	24020437 	li	v0,1079
    2da8:	afc216e4 	sw	v0,5860(s8)
    2dac:	24022577 	li	v0,9591
    2db0:	afc216e8 	sw	v0,5864(s8)
    2db4:	240209f3 	li	v0,2547
    2db8:	afc216ec 	sw	v0,5868(s8)
    2dbc:	24020967 	li	v0,2407
    2dc0:	afc216f0 	sw	v0,5872(s8)
    2dc4:	24022124 	li	v0,8484
    2dc8:	afc216f4 	sw	v0,5876(s8)
    2dcc:	24021bdb 	li	v0,7131
    2dd0:	afc216f8 	sw	v0,5880(s8)
    2dd4:	24022559 	li	v0,9561
    2dd8:	afc216fc 	sw	v0,5884(s8)
    2ddc:	24021337 	li	v0,4919
    2de0:	afc21700 	sw	v0,5888(s8)
    2de4:	2402078b 	li	v0,1931
    2de8:	afc21704 	sw	v0,5892(s8)
    2dec:	2402235d 	li	v0,9053
    2df0:	afc21708 	sw	v0,5896(s8)
    2df4:	24020210 	li	v0,528
    2df8:	afc2170c 	sw	v0,5900(s8)
    2dfc:	240220eb 	li	v0,8427
    2e00:	afc21710 	sw	v0,5904(s8)
    2e04:	24021576 	li	v0,5494
    2e08:	afc21714 	sw	v0,5908(s8)
    2e0c:	2402265b 	li	v0,9819
    2e10:	afc21718 	sw	v0,5912(s8)
    2e14:	24021d77 	li	v0,7543
    2e18:	afc2171c 	sw	v0,5916(s8)
    2e1c:	24021d9d 	li	v0,7581
    2e20:	afc21720 	sw	v0,5920(s8)
    2e24:	24020463 	li	v0,1123
    2e28:	afc21724 	sw	v0,5924(s8)
    2e2c:	24020eb8 	li	v0,3768
    2e30:	afc21728 	sw	v0,5928(s8)
    2e34:	240200bb 	li	v0,187
    2e38:	afc2172c 	sw	v0,5932(s8)
    2e3c:	24021dd7 	li	v0,7639
    2e40:	afc21730 	sw	v0,5936(s8)
    2e44:	24021223 	li	v0,4643
    2e48:	afc21734 	sw	v0,5940(s8)
    2e4c:	24020986 	li	v0,2438
    2e50:	afc21738 	sw	v0,5944(s8)
    2e54:	240207c4 	li	v0,1988
    2e58:	afc2173c 	sw	v0,5948(s8)
    2e5c:	24021ce2 	li	v0,7394
    2e60:	afc21740 	sw	v0,5952(s8)
    2e64:	24020528 	li	v0,1320
    2e68:	afc21744 	sw	v0,5956(s8)
    2e6c:	24021248 	li	v0,4680
    2e70:	afc21748 	sw	v0,5960(s8)
    2e74:	24021002 	li	v0,4098
    2e78:	afc2174c 	sw	v0,5964(s8)
    2e7c:	24021186 	li	v0,4486
    2e80:	afc21750 	sw	v0,5968(s8)
    2e84:	24020bca 	li	v0,3018
    2e88:	afc21754 	sw	v0,5972(s8)
    2e8c:	24022230 	li	v0,8752
    2e90:	afc21758 	sw	v0,5976(s8)
    2e94:	2402193f 	li	v0,6463
    2e98:	afc2175c 	sw	v0,5980(s8)
    2e9c:	24021002 	li	v0,4098
    2ea0:	afc21760 	sw	v0,5984(s8)
    2ea4:	24021257 	li	v0,4695
    2ea8:	afc21764 	sw	v0,5988(s8)
    2eac:	24022332 	li	v0,9010
    2eb0:	afc21768 	sw	v0,5992(s8)
    2eb4:	24021969 	li	v0,6505
    2eb8:	afc2176c 	sw	v0,5996(s8)
    2ebc:	24020c6b 	li	v0,3179
    2ec0:	afc21770 	sw	v0,6000(s8)
    2ec4:	240217fe 	li	v0,6142
    2ec8:	afc21774 	sw	v0,6004(s8)
    2ecc:	240217b2 	li	v0,6066
    2ed0:	afc21778 	sw	v0,6008(s8)
    2ed4:	24021fa2 	li	v0,8098
    2ed8:	afc2177c 	sw	v0,6012(s8)
    2edc:	24021149 	li	v0,4425
    2ee0:	afc21780 	sw	v0,6016(s8)
    2ee4:	240205c0 	li	v0,1472
    2ee8:	afc21784 	sw	v0,6020(s8)
    2eec:	24021372 	li	v0,4978
    2ef0:	afc21788 	sw	v0,6024(s8)
    2ef4:	24020b25 	li	v0,2853
    2ef8:	afc2178c 	sw	v0,6028(s8)
    2efc:	24021b36 	li	v0,6966
    2f00:	afc21790 	sw	v0,6032(s8)
    2f04:	240212bd 	li	v0,4797
    2f08:	afc21794 	sw	v0,6036(s8)
    2f0c:	24021a5c 	li	v0,6748
    2f10:	afc21798 	sw	v0,6040(s8)
    2f14:	240211c3 	li	v0,4547
    2f18:	afc2179c 	sw	v0,6044(s8)
    2f1c:	240208e0 	li	v0,2272
    2f20:	afc217a0 	sw	v0,6048(s8)
    2f24:	24020204 	li	v0,516
    2f28:	afc217a4 	sw	v0,6052(s8)
    2f2c:	2402043e 	li	v0,1086
    2f30:	afc217a8 	sw	v0,6056(s8)
    2f34:	240226b8 	li	v0,9912
    2f38:	afc217ac 	sw	v0,6060(s8)
    2f3c:	24021427 	li	v0,5159
    2f40:	afc217b0 	sw	v0,6064(s8)
    2f44:	24022695 	li	v0,9877
    2f48:	afc217b4 	sw	v0,6068(s8)
    2f4c:	2402076c 	li	v0,1900
    2f50:	afc217b8 	sw	v0,6072(s8)
    2f54:	240209f9 	li	v0,2553
    2f58:	afc217bc 	sw	v0,6076(s8)
    2f5c:	240204ad 	li	v0,1197
    2f60:	afc217c0 	sw	v0,6080(s8)
    2f64:	24020b74 	li	v0,2932
    2f68:	afc217c4 	sw	v0,6084(s8)
    2f6c:	24020bbb 	li	v0,3003
    2f70:	afc217c8 	sw	v0,6088(s8)
    2f74:	240207f3 	li	v0,2035
    2f78:	afc217cc 	sw	v0,6092(s8)
    2f7c:	2402173f 	li	v0,5951
    2f80:	afc217d0 	sw	v0,6096(s8)
    2f84:	24021fab 	li	v0,8107
    2f88:	afc217d4 	sw	v0,6100(s8)
    2f8c:	24022132 	li	v0,8498
    2f90:	afc217d8 	sw	v0,6104(s8)
    2f94:	24020031 	li	v0,49
    2f98:	afc217dc 	sw	v0,6108(s8)
    2f9c:	240223c2 	li	v0,9154
    2fa0:	afc217e0 	sw	v0,6112(s8)
    2fa4:	24020f15 	li	v0,3861
    2fa8:	afc217e4 	sw	v0,6116(s8)
    2fac:	24020b5a 	li	v0,2906
    2fb0:	afc217e8 	sw	v0,6120(s8)
    2fb4:	2402091e 	li	v0,2334
    2fb8:	afc217ec 	sw	v0,6124(s8)
    2fbc:	24020003 	li	v0,3
    2fc0:	afc217f0 	sw	v0,6128(s8)
    2fc4:	240214cd 	li	v0,5325
    2fc8:	afc217f4 	sw	v0,6132(s8)
    2fcc:	24021a80 	li	v0,6784
    2fd0:	afc217f8 	sw	v0,6136(s8)
    2fd4:	2402114c 	li	v0,4428
    2fd8:	afc217fc 	sw	v0,6140(s8)
    2fdc:	24021a8d 	li	v0,6797
    2fe0:	afc21800 	sw	v0,6144(s8)
    2fe4:	240206e3 	li	v0,1763
    2fe8:	afc21804 	sw	v0,6148(s8)
    2fec:	24020e31 	li	v0,3633
    2ff0:	afc21808 	sw	v0,6152(s8)
    2ff4:	24020073 	li	v0,115
    2ff8:	afc2180c 	sw	v0,6156(s8)
    2ffc:	240219a0 	li	v0,6560
    3000:	afc21810 	sw	v0,6160(s8)
    3004:	2402017d 	li	v0,381
    3008:	afc21814 	sw	v0,6164(s8)
    300c:	240203f6 	li	v0,1014
    3010:	afc21818 	sw	v0,6168(s8)
    3014:	24021441 	li	v0,5185
    3018:	afc2181c 	sw	v0,6172(s8)
    301c:	24020381 	li	v0,897
    3020:	afc21820 	sw	v0,6176(s8)
    3024:	24020834 	li	v0,2100
    3028:	afc21824 	sw	v0,6180(s8)
    302c:	240213e9 	li	v0,5097
    3030:	afc21828 	sw	v0,6184(s8)
    3034:	24020968 	li	v0,2408
    3038:	afc2182c 	sw	v0,6188(s8)
    303c:	24022089 	li	v0,8329
    3040:	afc21830 	sw	v0,6192(s8)
    3044:	24020d15 	li	v0,3349
    3048:	afc21834 	sw	v0,6196(s8)
    304c:	24020521 	li	v0,1313
    3050:	afc21838 	sw	v0,6200(s8)
    3054:	240216f7 	li	v0,5879
    3058:	afc2183c 	sw	v0,6204(s8)
    305c:	24020a4a 	li	v0,2634
    3060:	afc21840 	sw	v0,6208(s8)
    3064:	240210dc 	li	v0,4316
    3068:	afc21844 	sw	v0,6212(s8)
    306c:	24021eea 	li	v0,7914
    3070:	afc21848 	sw	v0,6216(s8)
    3074:	24022189 	li	v0,8585
    3078:	afc2184c 	sw	v0,6220(s8)
    307c:	24022247 	li	v0,8775
    3080:	afc21850 	sw	v0,6224(s8)
    3084:	24020acd 	li	v0,2765
    3088:	afc21854 	sw	v0,6228(s8)
    308c:	2402137a 	li	v0,4986
    3090:	afc21858 	sw	v0,6232(s8)
    3094:	24021efa 	li	v0,7930
    3098:	afc2185c 	sw	v0,6236(s8)
    309c:	240219e2 	li	v0,6626
    30a0:	afc21860 	sw	v0,6240(s8)
    30a4:	24021ed4 	li	v0,7892
    30a8:	afc21864 	sw	v0,6244(s8)
    30ac:	240219d8 	li	v0,6616
    30b0:	afc21868 	sw	v0,6248(s8)
    30b4:	240219e5 	li	v0,6629
    30b8:	afc2186c 	sw	v0,6252(s8)
    30bc:	24022561 	li	v0,9569
    30c0:	afc21870 	sw	v0,6256(s8)
    30c4:	24022618 	li	v0,9752
    30c8:	afc21874 	sw	v0,6260(s8)
    30cc:	24021cf1 	li	v0,7409
    30d0:	afc21878 	sw	v0,6264(s8)
    30d4:	240218de 	li	v0,6366
    30d8:	afc2187c 	sw	v0,6268(s8)
    30dc:	240205eb 	li	v0,1515
    30e0:	afc21880 	sw	v0,6272(s8)
    30e4:	24021ce3 	li	v0,7395
    30e8:	afc21884 	sw	v0,6276(s8)
    30ec:	24020b11 	li	v0,2833
    30f0:	afc21888 	sw	v0,6280(s8)
    30f4:	2402114c 	li	v0,4428
    30f8:	afc2188c 	sw	v0,6284(s8)
    30fc:	24021e60 	li	v0,7776
    3100:	afc21890 	sw	v0,6288(s8)
    3104:	24020f07 	li	v0,3847
    3108:	afc21894 	sw	v0,6292(s8)
    310c:	2402258d 	li	v0,9613
    3110:	afc21898 	sw	v0,6296(s8)
    3114:	240213a2 	li	v0,5026
    3118:	afc2189c 	sw	v0,6300(s8)
    311c:	240208fc 	li	v0,2300
    3120:	afc218a0 	sw	v0,6304(s8)
    3124:	24020426 	li	v0,1062
    3128:	afc218a4 	sw	v0,6308(s8)
    312c:	24020eca 	li	v0,3786
    3130:	afc218a8 	sw	v0,6312(s8)
    3134:	24020275 	li	v0,629
    3138:	afc218ac 	sw	v0,6316(s8)
    313c:	240202fb 	li	v0,763
    3140:	afc218b0 	sw	v0,6320(s8)
    3144:	240213ec 	li	v0,5100
    3148:	afc218b4 	sw	v0,6324(s8)
    314c:	2402196c 	li	v0,6508
    3150:	afc218b8 	sw	v0,6328(s8)
    3154:	24020d45 	li	v0,3397
    3158:	afc218bc 	sw	v0,6332(s8)
    315c:	240224c8 	li	v0,9416
    3160:	afc218c0 	sw	v0,6336(s8)
    3164:	24020307 	li	v0,775
    3168:	afc218c4 	sw	v0,6340(s8)
    316c:	240207be 	li	v0,1982
    3170:	afc218c8 	sw	v0,6344(s8)
    3174:	240211c0 	li	v0,4544
    3178:	afc218cc 	sw	v0,6348(s8)
    317c:	24020dd4 	li	v0,3540
    3180:	afc218d0 	sw	v0,6352(s8)
    3184:	24020cf8 	li	v0,3320
    3188:	afc218d4 	sw	v0,6356(s8)
    318c:	2402227a 	li	v0,8826
    3190:	afc218d8 	sw	v0,6360(s8)
    3194:	24021976 	li	v0,6518
    3198:	afc218dc 	sw	v0,6364(s8)
    319c:	24021d8d 	li	v0,7565
    31a0:	afc218e0 	sw	v0,6368(s8)
    31a4:	24020702 	li	v0,1794
    31a8:	afc218e4 	sw	v0,6372(s8)
    31ac:	2402251b 	li	v0,9499
    31b0:	afc218e8 	sw	v0,6376(s8)
    31b4:	24021bde 	li	v0,7134
    31b8:	afc218ec 	sw	v0,6380(s8)
    31bc:	2402060a 	li	v0,1546
    31c0:	afc218f0 	sw	v0,6384(s8)
    31c4:	24021afc 	li	v0,6908
    31c8:	afc218f4 	sw	v0,6388(s8)
    31cc:	2402267d 	li	v0,9853
    31d0:	afc218f8 	sw	v0,6392(s8)
    31d4:	24020bf6 	li	v0,3062
    31d8:	afc218fc 	sw	v0,6396(s8)
    31dc:	240210cf 	li	v0,4303
    31e0:	afc21900 	sw	v0,6400(s8)
    31e4:	24020a7e 	li	v0,2686
    31e8:	afc21904 	sw	v0,6404(s8)
    31ec:	24020f02 	li	v0,3842
    31f0:	afc21908 	sw	v0,6408(s8)
    31f4:	240220f0 	li	v0,8432
    31f8:	afc2190c 	sw	v0,6412(s8)
    31fc:	24021986 	li	v0,6534
    3200:	afc21910 	sw	v0,6416(s8)
    3204:	2402264f 	li	v0,9807
    3208:	afc21914 	sw	v0,6420(s8)
    320c:	24022652 	li	v0,9810
    3210:	afc21918 	sw	v0,6424(s8)
    3214:	24022282 	li	v0,8834
    3218:	afc2191c 	sw	v0,6428(s8)
    321c:	24020365 	li	v0,869
    3220:	afc21920 	sw	v0,6432(s8)
    3224:	24020e0c 	li	v0,3596
    3228:	afc21924 	sw	v0,6436(s8)
    322c:	240216b7 	li	v0,5815
    3230:	afc21928 	sw	v0,6440(s8)
    3234:	24021f30 	li	v0,7984
    3238:	afc2192c 	sw	v0,6444(s8)
    323c:	240221f8 	li	v0,8696
    3240:	afc21930 	sw	v0,6448(s8)
    3244:	24020914 	li	v0,2324
    3248:	afc21934 	sw	v0,6452(s8)
    324c:	24020566 	li	v0,1382
    3250:	afc21938 	sw	v0,6456(s8)
    3254:	24021171 	li	v0,4465
    3258:	afc2193c 	sw	v0,6460(s8)
    325c:	240224eb 	li	v0,9451
    3260:	afc21940 	sw	v0,6464(s8)
    3264:	240225f4 	li	v0,9716
    3268:	afc21944 	sw	v0,6468(s8)
    326c:	240214f1 	li	v0,5361
    3270:	afc21948 	sw	v0,6472(s8)
    3274:	2402247f 	li	v0,9343
    3278:	afc2194c 	sw	v0,6476(s8)
    327c:	24020bdd 	li	v0,3037
    3280:	afc21950 	sw	v0,6480(s8)
    3284:	2402105b 	li	v0,4187
    3288:	afc21954 	sw	v0,6484(s8)
    328c:	240216e5 	li	v0,5861
    3290:	afc21958 	sw	v0,6488(s8)
    3294:	2402025a 	li	v0,602
    3298:	afc2195c 	sw	v0,6492(s8)
    329c:	2402175d 	li	v0,5981
    32a0:	afc21960 	sw	v0,6496(s8)
    32a4:	240214f0 	li	v0,5360
    32a8:	afc21964 	sw	v0,6500(s8)
    32ac:	24020ff8 	li	v0,4088
    32b0:	afc21968 	sw	v0,6504(s8)
    32b4:	24020f27 	li	v0,3879
    32b8:	afc2196c 	sw	v0,6508(s8)
    32bc:	240221ac 	li	v0,8620
    32c0:	afc21970 	sw	v0,6512(s8)
    32c4:	24020f65 	li	v0,3941
    32c8:	afc21974 	sw	v0,6516(s8)
    32cc:	24020cdd 	li	v0,3293
    32d0:	afc21978 	sw	v0,6520(s8)
    32d4:	24020b6c 	li	v0,2924
    32d8:	afc2197c 	sw	v0,6524(s8)
    32dc:	240219e4 	li	v0,6628
    32e0:	afc21980 	sw	v0,6528(s8)
    32e4:	24021bdf 	li	v0,7135
    32e8:	afc21984 	sw	v0,6532(s8)
    32ec:	24021e1c 	li	v0,7708
    32f0:	afc21988 	sw	v0,6536(s8)
    32f4:	24020c5a 	li	v0,3162
    32f8:	afc2198c 	sw	v0,6540(s8)
    32fc:	24021b1e 	li	v0,6942
    3300:	afc21990 	sw	v0,6544(s8)
    3304:	24020f1e 	li	v0,3870
    3308:	afc21994 	sw	v0,6548(s8)
    330c:	240207cc 	li	v0,1996
    3310:	afc21998 	sw	v0,6552(s8)
    3314:	24021043 	li	v0,4163
    3318:	afc2199c 	sw	v0,6556(s8)
    331c:	24021d2a 	li	v0,7466
    3320:	afc219a0 	sw	v0,6560(s8)
    3324:	24021e83 	li	v0,7811
    3328:	afc219a4 	sw	v0,6564(s8)
    332c:	24022134 	li	v0,8500
    3330:	afc219a8 	sw	v0,6568(s8)
    3334:	240209d3 	li	v0,2515
    3338:	afc219ac 	sw	v0,6572(s8)
    333c:	24021957 	li	v0,6487
    3340:	afc219b0 	sw	v0,6576(s8)
    3344:	2402185a 	li	v0,6234
    3348:	afc219b4 	sw	v0,6580(s8)
    334c:	24020d04 	li	v0,3332
    3350:	afc219b8 	sw	v0,6584(s8)
    3354:	240208f2 	li	v0,2290
    3358:	afc219bc 	sw	v0,6588(s8)
    335c:	2402173e 	li	v0,5950
    3360:	afc219c0 	sw	v0,6592(s8)
    3364:	240221f5 	li	v0,8693
    3368:	afc219c4 	sw	v0,6596(s8)
    336c:	24020661 	li	v0,1633
    3370:	afc219c8 	sw	v0,6600(s8)
    3374:	240214db 	li	v0,5339
    3378:	afc219cc 	sw	v0,6604(s8)
    337c:	24020b40 	li	v0,2880
    3380:	afc219d0 	sw	v0,6608(s8)
    3384:	24021d46 	li	v0,7494
    3388:	afc219d4 	sw	v0,6612(s8)
    338c:	240208f5 	li	v0,2293
    3390:	afc219d8 	sw	v0,6616(s8)
    3394:	2402145d 	li	v0,5213
    3398:	afc219dc 	sw	v0,6620(s8)
    339c:	24020b26 	li	v0,2854
    33a0:	afc219e0 	sw	v0,6624(s8)
    33a4:	240218ee 	li	v0,6382
    33a8:	afc219e4 	sw	v0,6628(s8)
    33ac:	24021544 	li	v0,5444
    33b0:	afc219e8 	sw	v0,6632(s8)
    33b4:	240205c3 	li	v0,1475
    33b8:	afc219ec 	sw	v0,6636(s8)
    33bc:	24020143 	li	v0,323
    33c0:	afc219f0 	sw	v0,6640(s8)
    33c4:	24022222 	li	v0,8738
    33c8:	afc219f4 	sw	v0,6644(s8)
    33cc:	240202ef 	li	v0,751
    33d0:	afc219f8 	sw	v0,6648(s8)
    33d4:	24021b27 	li	v0,6951
    33d8:	afc219fc 	sw	v0,6652(s8)
    33dc:	240216f1 	li	v0,5873
    33e0:	afc21a00 	sw	v0,6656(s8)
    33e4:	240212cb 	li	v0,4811
    33e8:	afc21a04 	sw	v0,6660(s8)
    33ec:	24021941 	li	v0,6465
    33f0:	afc21a08 	sw	v0,6664(s8)
    33f4:	240223d0 	li	v0,9168
    33f8:	afc21a0c 	sw	v0,6668(s8)
    33fc:	240221e9 	li	v0,8681
    3400:	afc21a10 	sw	v0,6672(s8)
    3404:	240212cd 	li	v0,4813
    3408:	afc21a14 	sw	v0,6676(s8)
    340c:	240225d3 	li	v0,9683
    3410:	afc21a18 	sw	v0,6680(s8)
    3414:	240209c3 	li	v0,2499
    3418:	afc21a1c 	sw	v0,6684(s8)
    341c:	24022311 	li	v0,8977
    3420:	afc21a20 	sw	v0,6688(s8)
    3424:	240211b7 	li	v0,4535
    3428:	afc21a24 	sw	v0,6692(s8)
    342c:	24021396 	li	v0,5014
    3430:	afc21a28 	sw	v0,6696(s8)
    3434:	24021558 	li	v0,5464
    3438:	afc21a2c 	sw	v0,6700(s8)
    343c:	24020301 	li	v0,769
    3440:	afc21a30 	sw	v0,6704(s8)
    3444:	2402209a 	li	v0,8346
    3448:	afc21a34 	sw	v0,6708(s8)
    344c:	2402100b 	li	v0,4107
    3450:	afc21a38 	sw	v0,6712(s8)
    3454:	24020c00 	li	v0,3072
    3458:	afc21a3c 	sw	v0,6716(s8)
    345c:	24020d3f 	li	v0,3391
    3460:	afc21a40 	sw	v0,6720(s8)
    3464:	2402166c 	li	v0,5740
    3468:	afc21a44 	sw	v0,6724(s8)
    346c:	240220db 	li	v0,8411
    3470:	afc21a48 	sw	v0,6728(s8)
    3474:	24020a3f 	li	v0,2623
    3478:	afc21a4c 	sw	v0,6732(s8)
    347c:	24022573 	li	v0,9587
    3480:	afc21a50 	sw	v0,6736(s8)
    3484:	24021b91 	li	v0,7057
    3488:	afc21a54 	sw	v0,6740(s8)
    348c:	24021e9c 	li	v0,7836
    3490:	afc21a58 	sw	v0,6744(s8)
    3494:	24022259 	li	v0,8793
    3498:	afc21a5c 	sw	v0,6748(s8)
    349c:	24020d6f 	li	v0,3439
    34a0:	afc21a60 	sw	v0,6752(s8)
    34a4:	24020cd1 	li	v0,3281
    34a8:	afc21a64 	sw	v0,6756(s8)
    34ac:	240219dc 	li	v0,6620
    34b0:	afc21a68 	sw	v0,6760(s8)
    34b4:	24020072 	li	v0,114
    34b8:	afc21a6c 	sw	v0,6764(s8)
    34bc:	240220b3 	li	v0,8371
    34c0:	afc21a70 	sw	v0,6768(s8)
    34c4:	24021ccb 	li	v0,7371
    34c8:	afc21a74 	sw	v0,6772(s8)
    34cc:	24020d5a 	li	v0,3418
    34d0:	afc21a78 	sw	v0,6776(s8)
    34d4:	24020254 	li	v0,596
    34d8:	afc21a7c 	sw	v0,6780(s8)
    34dc:	24022156 	li	v0,8534
    34e0:	afc21a80 	sw	v0,6784(s8)
    34e4:	2402269b 	li	v0,9883
    34e8:	afc21a84 	sw	v0,6788(s8)
    34ec:	24022624 	li	v0,9764
    34f0:	afc21a88 	sw	v0,6792(s8)
    34f4:	24020def 	li	v0,3567
    34f8:	afc21a8c 	sw	v0,6796(s8)
    34fc:	24021259 	li	v0,4697
    3500:	afc21a90 	sw	v0,6800(s8)
    3504:	240216a8 	li	v0,5800
    3508:	afc21a94 	sw	v0,6804(s8)
    350c:	240217b3 	li	v0,6067
    3510:	afc21a98 	sw	v0,6808(s8)
    3514:	24020e5a 	li	v0,3674
    3518:	afc21a9c 	sw	v0,6812(s8)
    351c:	2402014f 	li	v0,335
    3520:	afc21aa0 	sw	v0,6816(s8)
    3524:	24021d09 	li	v0,7433
    3528:	afc21aa4 	sw	v0,6820(s8)
    352c:	24021572 	li	v0,5490
    3530:	afc21aa8 	sw	v0,6824(s8)
    3534:	24021d21 	li	v0,7457
    3538:	afc21aac 	sw	v0,6828(s8)
    353c:	24020854 	li	v0,2132
    3540:	afc21ab0 	sw	v0,6832(s8)
    3544:	2402173d 	li	v0,5949
    3548:	afc21ab4 	sw	v0,6836(s8)
    354c:	24020211 	li	v0,529
    3550:	afc21ab8 	sw	v0,6840(s8)
    3554:	24021593 	li	v0,5523
    3558:	afc21abc 	sw	v0,6844(s8)
    355c:	2402069a 	li	v0,1690
    3560:	afc21ac0 	sw	v0,6848(s8)
    3564:	240214ac 	li	v0,5292
    3568:	afc21ac4 	sw	v0,6852(s8)
    356c:	24021fd3 	li	v0,8147
    3570:	afc21ac8 	sw	v0,6856(s8)
    3574:	24021dcd 	li	v0,7629
    3578:	afc21acc 	sw	v0,6860(s8)
    357c:	2402092d 	li	v0,2349
    3580:	afc21ad0 	sw	v0,6864(s8)
    3584:	2402091f 	li	v0,2335
    3588:	afc21ad4 	sw	v0,6868(s8)
    358c:	24021916 	li	v0,6422
    3590:	afc21ad8 	sw	v0,6872(s8)
    3594:	2402085c 	li	v0,2140
    3598:	afc21adc 	sw	v0,6876(s8)
    359c:	240207b0 	li	v0,1968
    35a0:	afc21ae0 	sw	v0,6880(s8)
    35a4:	24020be3 	li	v0,3043
    35a8:	afc21ae4 	sw	v0,6884(s8)
    35ac:	240208cf 	li	v0,2255
    35b0:	afc21ae8 	sw	v0,6888(s8)
    35b4:	24020153 	li	v0,339
    35b8:	afc21aec 	sw	v0,6892(s8)
    35bc:	24021a6e 	li	v0,6766
    35c0:	afc21af0 	sw	v0,6896(s8)
    35c4:	240207e9 	li	v0,2025
    35c8:	afc21af4 	sw	v0,6900(s8)
    35cc:	240203a8 	li	v0,936
    35d0:	afc21af8 	sw	v0,6904(s8)
    35d4:	24020675 	li	v0,1653
    35d8:	afc21afc 	sw	v0,6908(s8)
    35dc:	24022044 	li	v0,8260
    35e0:	afc21b00 	sw	v0,6912(s8)
    35e4:	24021b8c 	li	v0,7052
    35e8:	afc21b04 	sw	v0,6916(s8)
    35ec:	24021464 	li	v0,5220
    35f0:	afc21b08 	sw	v0,6920(s8)
    35f4:	24020b8d 	li	v0,2957
    35f8:	afc21b0c 	sw	v0,6924(s8)
    35fc:	240223f4 	li	v0,9204
    3600:	afc21b10 	sw	v0,6928(s8)
    3604:	24020507 	li	v0,1287
    3608:	afc21b14 	sw	v0,6932(s8)
    360c:	24020ba7 	li	v0,2983
    3610:	afc21b18 	sw	v0,6936(s8)
    3614:	24022544 	li	v0,9540
    3618:	afc21b1c 	sw	v0,6940(s8)
    361c:	24022211 	li	v0,8721
    3620:	afc21b20 	sw	v0,6944(s8)
    3624:	240212da 	li	v0,4826
    3628:	afc21b24 	sw	v0,6948(s8)
    362c:	24021b55 	li	v0,6997
    3630:	afc21b28 	sw	v0,6952(s8)
    3634:	24021c25 	li	v0,7205
    3638:	afc21b2c 	sw	v0,6956(s8)
    363c:	24021bd7 	li	v0,7127
    3640:	afc21b30 	sw	v0,6960(s8)
    3644:	24020f26 	li	v0,3878
    3648:	afc21b34 	sw	v0,6964(s8)
    364c:	24020aa8 	li	v0,2728
    3650:	afc21b38 	sw	v0,6968(s8)
    3654:	24021431 	li	v0,5169
    3658:	afc21b3c 	sw	v0,6972(s8)
    365c:	240223d2 	li	v0,9170
    3660:	afc21b40 	sw	v0,6976(s8)
    3664:	24021c3b 	li	v0,7227
    3668:	afc21b44 	sw	v0,6980(s8)
    366c:	24020aee 	li	v0,2798
    3670:	afc21b48 	sw	v0,6984(s8)
    3674:	240205f0 	li	v0,1520
    3678:	afc21b4c 	sw	v0,6988(s8)
    367c:	2402255b 	li	v0,9563
    3680:	afc21b50 	sw	v0,6992(s8)
    3684:	24022405 	li	v0,9221
    3688:	afc21b54 	sw	v0,6996(s8)
    368c:	24020e4c 	li	v0,3660
    3690:	afc21b58 	sw	v0,7000(s8)
    3694:	24021ecb 	li	v0,7883
    3698:	afc21b5c 	sw	v0,7004(s8)
    369c:	240221a8 	li	v0,8616
    36a0:	afc21b60 	sw	v0,7008(s8)
    36a4:	240208db 	li	v0,2267
    36a8:	afc21b64 	sw	v0,7012(s8)
    36ac:	2402201f 	li	v0,8223
    36b0:	afc21b68 	sw	v0,7016(s8)
    36b4:	24021506 	li	v0,5382
    36b8:	afc21b6c 	sw	v0,7020(s8)
    36bc:	240210c4 	li	v0,4292
    36c0:	afc21b70 	sw	v0,7024(s8)
    36c4:	24021587 	li	v0,5511
    36c8:	afc21b74 	sw	v0,7028(s8)
    36cc:	24021b7b 	li	v0,7035
    36d0:	afc21b78 	sw	v0,7032(s8)
    36d4:	240209f9 	li	v0,2553
    36d8:	afc21b7c 	sw	v0,7036(s8)
    36dc:	24020a03 	li	v0,2563
    36e0:	afc21b80 	sw	v0,7040(s8)
    36e4:	240221a0 	li	v0,8608
    36e8:	afc21b84 	sw	v0,7044(s8)
    36ec:	24020746 	li	v0,1862
    36f0:	afc21b88 	sw	v0,7048(s8)
    36f4:	240206e8 	li	v0,1768
    36f8:	afc21b8c 	sw	v0,7052(s8)
    36fc:	240226a7 	li	v0,9895
    3700:	afc21b90 	sw	v0,7056(s8)
    3704:	240204ae 	li	v0,1198
    3708:	afc21b94 	sw	v0,7060(s8)
    370c:	24021dec 	li	v0,7660
    3710:	afc21b98 	sw	v0,7064(s8)
    3714:	24021368 	li	v0,4968
    3718:	afc21b9c 	sw	v0,7068(s8)
    371c:	24020948 	li	v0,2376
    3720:	afc21ba0 	sw	v0,7072(s8)
    3724:	240203f1 	li	v0,1009
    3728:	afc21ba4 	sw	v0,7076(s8)
    372c:	2402087d 	li	v0,2173
    3730:	afc21ba8 	sw	v0,7080(s8)
    3734:	2402251f 	li	v0,9503
    3738:	afc21bac 	sw	v0,7084(s8)
    373c:	24021317 	li	v0,4887
    3740:	afc21bb0 	sw	v0,7088(s8)
    3744:	240204e6 	li	v0,1254
    3748:	afc21bb4 	sw	v0,7092(s8)
    374c:	24021241 	li	v0,4673
    3750:	afc21bb8 	sw	v0,7096(s8)
    3754:	24020fd9 	li	v0,4057
    3758:	afc21bbc 	sw	v0,7100(s8)
    375c:	24022121 	li	v0,8481
    3760:	afc21bc0 	sw	v0,7104(s8)
    3764:	24020eef 	li	v0,3823
    3768:	afc21bc4 	sw	v0,7108(s8)
    376c:	24020789 	li	v0,1929
    3770:	afc21bc8 	sw	v0,7112(s8)
    3774:	2402112c 	li	v0,4396
    3778:	afc21bcc 	sw	v0,7116(s8)
    377c:	24020be4 	li	v0,3044
    3780:	afc21bd0 	sw	v0,7120(s8)
    3784:	24020796 	li	v0,1942
    3788:	afc21bd4 	sw	v0,7124(s8)
    378c:	240208e8 	li	v0,2280
    3790:	afc21bd8 	sw	v0,7128(s8)
    3794:	24021f4c 	li	v0,8012
    3798:	afc21bdc 	sw	v0,7132(s8)
    379c:	24021071 	li	v0,4209
    37a0:	afc21be0 	sw	v0,7136(s8)
    37a4:	24021ac7 	li	v0,6855
    37a8:	afc21be4 	sw	v0,7140(s8)
    37ac:	24022613 	li	v0,9747
    37b0:	afc21be8 	sw	v0,7144(s8)
    37b4:	240212f6 	li	v0,4854
    37b8:	afc21bec 	sw	v0,7148(s8)
    37bc:	2402093e 	li	v0,2366
    37c0:	afc21bf0 	sw	v0,7152(s8)
    37c4:	24020c3e 	li	v0,3134
    37c8:	afc21bf4 	sw	v0,7156(s8)
    37cc:	24020eaf 	li	v0,3759
    37d0:	afc21bf8 	sw	v0,7160(s8)
    37d4:	24020501 	li	v0,1281
    37d8:	afc21bfc 	sw	v0,7164(s8)
    37dc:	240206ce 	li	v0,1742
    37e0:	afc21c00 	sw	v0,7168(s8)
    37e4:	240207b5 	li	v0,1973
    37e8:	afc21c04 	sw	v0,7172(s8)
    37ec:	240224b9 	li	v0,9401
    37f0:	afc21c08 	sw	v0,7176(s8)
    37f4:	24020666 	li	v0,1638
    37f8:	afc21c0c 	sw	v0,7180(s8)
    37fc:	24020c63 	li	v0,3171
    3800:	afc21c10 	sw	v0,7184(s8)
    3804:	24020d55 	li	v0,3413
    3808:	afc21c14 	sw	v0,7188(s8)
    380c:	24020b8e 	li	v0,2958
    3810:	afc21c18 	sw	v0,7192(s8)
    3814:	2402076b 	li	v0,1899
    3818:	afc21c1c 	sw	v0,7196(s8)
    381c:	24021146 	li	v0,4422
    3820:	afc21c20 	sw	v0,7200(s8)
    3824:	240205cc 	li	v0,1484
    3828:	afc21c24 	sw	v0,7204(s8)
    382c:	24021e4b 	li	v0,7755
    3830:	afc21c28 	sw	v0,7208(s8)
    3834:	2402161d 	li	v0,5661
    3838:	afc21c2c 	sw	v0,7212(s8)
    383c:	24022382 	li	v0,9090
    3840:	afc21c30 	sw	v0,7216(s8)
    3844:	2402224c 	li	v0,8780
    3848:	afc21c34 	sw	v0,7220(s8)
    384c:	240217b7 	li	v0,6071
    3850:	afc21c38 	sw	v0,7224(s8)
    3854:	24020f53 	li	v0,3923
    3858:	afc21c3c 	sw	v0,7228(s8)
    385c:	24020a2b 	li	v0,2603
    3860:	afc21c40 	sw	v0,7232(s8)
    3864:	24021f40 	li	v0,8000
    3868:	afc21c44 	sw	v0,7236(s8)
    386c:	24022080 	li	v0,8320
    3870:	afc21c48 	sw	v0,7240(s8)
    3874:	240207d0 	li	v0,2000
    3878:	afc21c4c 	sw	v0,7244(s8)
    387c:	240226d6 	li	v0,9942
    3880:	afc21c50 	sw	v0,7248(s8)
    3884:	24021b28 	li	v0,6952
    3888:	afc21c54 	sw	v0,7252(s8)
    388c:	2402000c 	li	v0,12
    3890:	afc21c58 	sw	v0,7256(s8)
    3894:	240201f8 	li	v0,504
    3898:	afc21c5c 	sw	v0,7260(s8)
    389c:	24020edf 	li	v0,3807
    38a0:	afc21c60 	sw	v0,7264(s8)
    38a4:	2402261f 	li	v0,9759
    38a8:	afc21c64 	sw	v0,7268(s8)
    38ac:	240214ee 	li	v0,5358
    38b0:	afc21c68 	sw	v0,7272(s8)
    38b4:	240209dd 	li	v0,2525
    38b8:	afc21c6c 	sw	v0,7276(s8)
    38bc:	24020b4e 	li	v0,2894
    38c0:	afc21c70 	sw	v0,7280(s8)
    38c4:	2402239d 	li	v0,9117
    38c8:	afc21c74 	sw	v0,7284(s8)
    38cc:	2402009e 	li	v0,158
    38d0:	afc21c78 	sw	v0,7288(s8)
    38d4:	2402121c 	li	v0,4636
    38d8:	afc21c7c 	sw	v0,7292(s8)
    38dc:	24020442 	li	v0,1090
    38e0:	afc21c80 	sw	v0,7296(s8)
    38e4:	24022558 	li	v0,9560
    38e8:	afc21c84 	sw	v0,7300(s8)
    38ec:	24020a42 	li	v0,2626
    38f0:	afc21c88 	sw	v0,7304(s8)
    38f4:	24020266 	li	v0,614
    38f8:	afc21c8c 	sw	v0,7308(s8)
    38fc:	24020b9d 	li	v0,2973
    3900:	afc21c90 	sw	v0,7312(s8)
    3904:	24020791 	li	v0,1937
    3908:	afc21c94 	sw	v0,7316(s8)
    390c:	240222a1 	li	v0,8865
    3910:	afc21c98 	sw	v0,7320(s8)
    3914:	24020ea4 	li	v0,3748
    3918:	afc21c9c 	sw	v0,7324(s8)
    391c:	24020d5d 	li	v0,3421
    3920:	afc21ca0 	sw	v0,7328(s8)
    3924:	240219dc 	li	v0,6620
    3928:	afc21ca4 	sw	v0,7332(s8)
    392c:	240224c1 	li	v0,9409
    3930:	afc21ca8 	sw	v0,7336(s8)
    3934:	2402229f 	li	v0,8863
    3938:	afc21cac 	sw	v0,7340(s8)
    393c:	24021518 	li	v0,5400
    3940:	afc21cb0 	sw	v0,7344(s8)
    3944:	24020728 	li	v0,1832
    3948:	afc21cb4 	sw	v0,7348(s8)
    394c:	24020ae2 	li	v0,2786
    3950:	afc21cb8 	sw	v0,7352(s8)
    3954:	24021f44 	li	v0,8004
    3958:	afc21cbc 	sw	v0,7356(s8)
    395c:	24022669 	li	v0,9833
    3960:	afc21cc0 	sw	v0,7360(s8)
    3964:	24021d22 	li	v0,7458
    3968:	afc21cc4 	sw	v0,7364(s8)
    396c:	240218d4 	li	v0,6356
    3970:	afc21cc8 	sw	v0,7368(s8)
    3974:	240217ef 	li	v0,6127
    3978:	afc21ccc 	sw	v0,7372(s8)
    397c:	2402113a 	li	v0,4410
    3980:	afc21cd0 	sw	v0,7376(s8)
    3984:	240218e0 	li	v0,6368
    3988:	afc21cd4 	sw	v0,7380(s8)
    398c:	240219e7 	li	v0,6631
    3990:	afc21cd8 	sw	v0,7384(s8)
    3994:	240211d9 	li	v0,4569
    3998:	afc21cdc 	sw	v0,7388(s8)
    399c:	240217f0 	li	v0,6128
    39a0:	afc21ce0 	sw	v0,7392(s8)
    39a4:	24022095 	li	v0,8341
    39a8:	afc21ce4 	sw	v0,7396(s8)
    39ac:	24020d76 	li	v0,3446
    39b0:	afc21ce8 	sw	v0,7400(s8)
    39b4:	240214fe 	li	v0,5374
    39b8:	afc21cec 	sw	v0,7404(s8)
    39bc:	24021d22 	li	v0,7458
    39c0:	afc21cf0 	sw	v0,7408(s8)
    39c4:	24020e15 	li	v0,3605
    39c8:	afc21cf4 	sw	v0,7412(s8)
    39cc:	2402000a 	li	v0,10
    39d0:	afc21cf8 	sw	v0,7416(s8)
    39d4:	24021325 	li	v0,4901
    39d8:	afc21cfc 	sw	v0,7420(s8)
    39dc:	24020c5d 	li	v0,3165
    39e0:	afc21d00 	sw	v0,7424(s8)
    39e4:	2402231d 	li	v0,8989
    39e8:	afc21d04 	sw	v0,7428(s8)
    39ec:	2402074b 	li	v0,1867
    39f0:	afc21d08 	sw	v0,7432(s8)
    39f4:	240209ba 	li	v0,2490
    39f8:	afc21d0c 	sw	v0,7436(s8)
    39fc:	2402039e 	li	v0,926
    3a00:	afc21d10 	sw	v0,7440(s8)
    3a04:	240202dc 	li	v0,732
    3a08:	afc21d14 	sw	v0,7444(s8)
    3a0c:	2402185e 	li	v0,6238
    3a10:	afc21d18 	sw	v0,7448(s8)
    3a14:	240202bb 	li	v0,699
    3a18:	afc21d1c 	sw	v0,7452(s8)
    3a1c:	24020e79 	li	v0,3705
    3a20:	afc21d20 	sw	v0,7456(s8)
    3a24:	240207d0 	li	v0,2000
    3a28:	afc21d24 	sw	v0,7460(s8)
    3a2c:	2402255a 	li	v0,9562
    3a30:	afc21d28 	sw	v0,7464(s8)
    3a34:	24021551 	li	v0,5457
    3a38:	afc21d2c 	sw	v0,7468(s8)
    3a3c:	24020ef8 	li	v0,3832
    3a40:	afc21d30 	sw	v0,7472(s8)
    3a44:	2402092c 	li	v0,2348
    3a48:	afc21d34 	sw	v0,7476(s8)
    3a4c:	24020d85 	li	v0,3461
    3a50:	afc21d38 	sw	v0,7480(s8)
    3a54:	24020011 	li	v0,17
    3a58:	afc21d3c 	sw	v0,7484(s8)
    3a5c:	2402264f 	li	v0,9807
    3a60:	afc21d40 	sw	v0,7488(s8)
    3a64:	24021819 	li	v0,6169
    3a68:	afc21d44 	sw	v0,7492(s8)
    3a6c:	240209c1 	li	v0,2497
    3a70:	afc21d48 	sw	v0,7496(s8)
    3a74:	24020239 	li	v0,569
    3a78:	afc21d4c 	sw	v0,7500(s8)
    3a7c:	240209ea 	li	v0,2538
    3a80:	afc21d50 	sw	v0,7504(s8)
    3a84:	240223a8 	li	v0,9128
    3a88:	afc21d54 	sw	v0,7508(s8)
    3a8c:	24021413 	li	v0,5139
    3a90:	afc21d58 	sw	v0,7512(s8)
    3a94:	2402139a 	li	v0,5018
    3a98:	afc21d5c 	sw	v0,7516(s8)
    3a9c:	24021d2e 	li	v0,7470
    3aa0:	afc21d60 	sw	v0,7520(s8)
    3aa4:	24022189 	li	v0,8585
    3aa8:	afc21d64 	sw	v0,7524(s8)
    3aac:	24020188 	li	v0,392
    3ab0:	afc21d68 	sw	v0,7528(s8)
    3ab4:	24020500 	li	v0,1280
    3ab8:	afc21d6c 	sw	v0,7532(s8)
    3abc:	2402215e 	li	v0,8542
    3ac0:	afc21d70 	sw	v0,7536(s8)
    3ac4:	24021a62 	li	v0,6754
    3ac8:	afc21d74 	sw	v0,7540(s8)
    3acc:	240209e5 	li	v0,2533
    3ad0:	afc21d78 	sw	v0,7544(s8)
    3ad4:	240206ab 	li	v0,1707
    3ad8:	afc21d7c 	sw	v0,7548(s8)
    3adc:	2402166f 	li	v0,5743
    3ae0:	afc21d80 	sw	v0,7552(s8)
    3ae4:	24021130 	li	v0,4400
    3ae8:	afc21d84 	sw	v0,7556(s8)
    3aec:	24020226 	li	v0,550
    3af0:	afc21d88 	sw	v0,7560(s8)
    3af4:	24020bcd 	li	v0,3021
    3af8:	afc21d8c 	sw	v0,7564(s8)
    3afc:	240205cd 	li	v0,1485
    3b00:	afc21d90 	sw	v0,7568(s8)
    3b04:	24021a84 	li	v0,6788
    3b08:	afc21d94 	sw	v0,7572(s8)
    3b0c:	24020e88 	li	v0,3720
    3b10:	afc21d98 	sw	v0,7576(s8)
    3b14:	24021446 	li	v0,5190
    3b18:	afc21d9c 	sw	v0,7580(s8)
    3b1c:	24021414 	li	v0,5140
    3b20:	afc21da0 	sw	v0,7584(s8)
    3b24:	240225a2 	li	v0,9634
    3b28:	afc21da4 	sw	v0,7588(s8)
    3b2c:	24020287 	li	v0,647
    3b30:	afc21da8 	sw	v0,7592(s8)
    3b34:	240214cd 	li	v0,5325
    3b38:	afc21dac 	sw	v0,7596(s8)
    3b3c:	240207bf 	li	v0,1983
    3b40:	afc21db0 	sw	v0,7600(s8)
    3b44:	240201cd 	li	v0,461
    3b48:	afc21db4 	sw	v0,7604(s8)
    3b4c:	2402069e 	li	v0,1694
    3b50:	afc21db8 	sw	v0,7608(s8)
    3b54:	24021fce 	li	v0,8142
    3b58:	afc21dbc 	sw	v0,7612(s8)
    3b5c:	240219e6 	li	v0,6630
    3b60:	afc21dc0 	sw	v0,7616(s8)
    3b64:	2402105f 	li	v0,4191
    3b68:	afc21dc4 	sw	v0,7620(s8)
    3b6c:	240213c7 	li	v0,5063
    3b70:	afc21dc8 	sw	v0,7624(s8)
    3b74:	24021590 	li	v0,5520
    3b78:	afc21dcc 	sw	v0,7628(s8)
    3b7c:	24020cf8 	li	v0,3320
    3b80:	afc21dd0 	sw	v0,7632(s8)
    3b84:	2402199a 	li	v0,6554
    3b88:	afc21dd4 	sw	v0,7636(s8)
    3b8c:	2402021a 	li	v0,538
    3b90:	afc21dd8 	sw	v0,7640(s8)
    3b94:	24021be6 	li	v0,7142
    3b98:	afc21ddc 	sw	v0,7644(s8)
    3b9c:	240205d4 	li	v0,1492
    3ba0:	afc21de0 	sw	v0,7648(s8)
    3ba4:	240203a2 	li	v0,930
    3ba8:	afc21de4 	sw	v0,7652(s8)
    3bac:	240220e6 	li	v0,8422
    3bb0:	afc21de8 	sw	v0,7656(s8)
    3bb4:	24020022 	li	v0,34
    3bb8:	afc21dec 	sw	v0,7660(s8)
    3bbc:	24021e05 	li	v0,7685
    3bc0:	afc21df0 	sw	v0,7664(s8)
    3bc4:	24021c8c 	li	v0,7308
    3bc8:	afc21df4 	sw	v0,7668(s8)
    3bcc:	24021f9e 	li	v0,8094
    3bd0:	afc21df8 	sw	v0,7672(s8)
    3bd4:	24022634 	li	v0,9780
    3bd8:	afc21dfc 	sw	v0,7676(s8)
    3bdc:	240206ac 	li	v0,1708
    3be0:	afc21e00 	sw	v0,7680(s8)
    3be4:	240221c4 	li	v0,8644
    3be8:	afc21e04 	sw	v0,7684(s8)
    3bec:	24020af2 	li	v0,2802
    3bf0:	afc21e08 	sw	v0,7688(s8)
    3bf4:	24022549 	li	v0,9545
    3bf8:	afc21e0c 	sw	v0,7692(s8)
    3bfc:	240206f8 	li	v0,1784
    3c00:	afc21e10 	sw	v0,7696(s8)
    3c04:	2402197a 	li	v0,6522
    3c08:	afc21e14 	sw	v0,7700(s8)
    3c0c:	2402043f 	li	v0,1087
    3c10:	afc21e18 	sw	v0,7704(s8)
    3c14:	24021b0d 	li	v0,6925
    3c18:	afc21e1c 	sw	v0,7708(s8)
    3c1c:	2402180d 	li	v0,6157
    3c20:	afc21e20 	sw	v0,7712(s8)
    3c24:	240206c7 	li	v0,1735
    3c28:	afc21e24 	sw	v0,7716(s8)
    3c2c:	2402219a 	li	v0,8602
    3c30:	afc21e28 	sw	v0,7720(s8)
    3c34:	2402118c 	li	v0,4492
    3c38:	afc21e2c 	sw	v0,7724(s8)
    3c3c:	24022164 	li	v0,8548
    3c40:	afc21e30 	sw	v0,7728(s8)
    3c44:	24020128 	li	v0,296
    3c48:	afc21e34 	sw	v0,7732(s8)
    3c4c:	2402231a 	li	v0,8986
    3c50:	afc21e38 	sw	v0,7736(s8)
    3c54:	240205fa 	li	v0,1530
    3c58:	afc21e3c 	sw	v0,7740(s8)
    3c5c:	24020348 	li	v0,840
    3c60:	afc21e40 	sw	v0,7744(s8)
    3c64:	24020fd1 	li	v0,4049
    3c68:	afc21e44 	sw	v0,7748(s8)
    3c6c:	24021b8b 	li	v0,7051
    3c70:	afc21e48 	sw	v0,7752(s8)
    3c74:	24020200 	li	v0,512
    3c78:	afc21e4c 	sw	v0,7756(s8)
    3c7c:	24021b2c 	li	v0,6956
    3c80:	afc21e50 	sw	v0,7760(s8)
    3c84:	24021da5 	li	v0,7589
    3c88:	afc21e54 	sw	v0,7764(s8)
    3c8c:	24021de6 	li	v0,7654
    3c90:	afc21e58 	sw	v0,7768(s8)
    3c94:	24022100 	li	v0,8448
    3c98:	afc21e5c 	sw	v0,7772(s8)
    3c9c:	24021308 	li	v0,4872
    3ca0:	afc21e60 	sw	v0,7776(s8)
    3ca4:	2402097c 	li	v0,2428
    3ca8:	afc21e64 	sw	v0,7780(s8)
    3cac:	24022122 	li	v0,8482
    3cb0:	afc21e68 	sw	v0,7784(s8)
    3cb4:	240209fd 	li	v0,2557
    3cb8:	afc21e6c 	sw	v0,7788(s8)
    3cbc:	240217c8 	li	v0,6088
    3cc0:	afc21e70 	sw	v0,7792(s8)
    3cc4:	240219b0 	li	v0,6576
    3cc8:	afc21e74 	sw	v0,7796(s8)
    3ccc:	24020921 	li	v0,2337
    3cd0:	afc21e78 	sw	v0,7800(s8)
    3cd4:	24021e75 	li	v0,7797
    3cd8:	afc21e7c 	sw	v0,7804(s8)
    3cdc:	24021464 	li	v0,5220
    3ce0:	afc21e80 	sw	v0,7808(s8)
    3ce4:	24021413 	li	v0,5139
    3ce8:	afc21e84 	sw	v0,7812(s8)
    3cec:	24020e6e 	li	v0,3694
    3cf0:	afc21e88 	sw	v0,7816(s8)
    3cf4:	24021b5d 	li	v0,7005
    3cf8:	afc21e8c 	sw	v0,7820(s8)
    3cfc:	24021f4e 	li	v0,8014
    3d00:	afc21e90 	sw	v0,7824(s8)
    3d04:	240212ae 	li	v0,4782
    3d08:	afc21e94 	sw	v0,7828(s8)
    3d0c:	2402011a 	li	v0,282
    3d10:	afc21e98 	sw	v0,7832(s8)
    3d14:	2402020b 	li	v0,523
    3d18:	afc21e9c 	sw	v0,7836(s8)
    3d1c:	24020b35 	li	v0,2869
    3d20:	afc21ea0 	sw	v0,7840(s8)
    3d24:	24021474 	li	v0,5236
    3d28:	afc21ea4 	sw	v0,7844(s8)
    3d2c:	24021397 	li	v0,5015
    3d30:	afc21ea8 	sw	v0,7848(s8)
    3d34:	24020589 	li	v0,1417
    3d38:	afc21eac 	sw	v0,7852(s8)
    3d3c:	2402075c 	li	v0,1884
    3d40:	afc21eb0 	sw	v0,7856(s8)
    3d44:	24020161 	li	v0,353
    3d48:	afc21eb4 	sw	v0,7860(s8)
    3d4c:	24022453 	li	v0,9299
    3d50:	afc21eb8 	sw	v0,7864(s8)
    3d54:	24020aa4 	li	v0,2724
    3d58:	afc21ebc 	sw	v0,7868(s8)
    3d5c:	240202f2 	li	v0,754
    3d60:	afc21ec0 	sw	v0,7872(s8)
    3d64:	240218ce 	li	v0,6350
    3d68:	afc21ec4 	sw	v0,7876(s8)
    3d6c:	24020ca4 	li	v0,3236
    3d70:	afc21ec8 	sw	v0,7880(s8)
    3d74:	24021e1e 	li	v0,7710
    3d78:	afc21ecc 	sw	v0,7884(s8)
    3d7c:	24020124 	li	v0,292
    3d80:	afc21ed0 	sw	v0,7888(s8)
    3d84:	24021c4a 	li	v0,7242
    3d88:	afc21ed4 	sw	v0,7892(s8)
    3d8c:	2402180e 	li	v0,6158
    3d90:	afc21ed8 	sw	v0,7896(s8)
    3d94:	2402142c 	li	v0,5164
    3d98:	afc21edc 	sw	v0,7900(s8)
    3d9c:	24021787 	li	v0,6023
    3da0:	afc21ee0 	sw	v0,7904(s8)
    3da4:	24021221 	li	v0,4641
    3da8:	afc21ee4 	sw	v0,7908(s8)
    3dac:	24021e29 	li	v0,7721
    3db0:	afc21ee8 	sw	v0,7912(s8)
    3db4:	2402083f 	li	v0,2111
    3db8:	afc21eec 	sw	v0,7916(s8)
    3dbc:	24021d91 	li	v0,7569
    3dc0:	afc21ef0 	sw	v0,7920(s8)
    3dc4:	2402190a 	li	v0,6410
    3dc8:	afc21ef4 	sw	v0,7924(s8)
    3dcc:	24021874 	li	v0,6260
    3dd0:	afc21ef8 	sw	v0,7928(s8)
    3dd4:	24020ae6 	li	v0,2790
    3dd8:	afc21efc 	sw	v0,7932(s8)
    3ddc:	24021ede 	li	v0,7902
    3de0:	afc21f00 	sw	v0,7936(s8)
    3de4:	240226e3 	li	v0,9955
    3de8:	afc21f04 	sw	v0,7940(s8)
    3dec:	24021803 	li	v0,6147
    3df0:	afc21f08 	sw	v0,7944(s8)
    3df4:	2402171c 	li	v0,5916
    3df8:	afc21f0c 	sw	v0,7948(s8)
    3dfc:	24020441 	li	v0,1089
    3e00:	afc21f10 	sw	v0,7952(s8)
    3e04:	24020add 	li	v0,2781
    3e08:	afc21f14 	sw	v0,7956(s8)
    3e0c:	24021927 	li	v0,6439
    3e10:	afc21f18 	sw	v0,7960(s8)
    3e14:	24020f76 	li	v0,3958
    3e18:	afc21f1c 	sw	v0,7964(s8)
    3e1c:	24021f51 	li	v0,8017
    3e20:	afc21f20 	sw	v0,7968(s8)
    3e24:	24021e7e 	li	v0,7806
    3e28:	afc21f24 	sw	v0,7972(s8)
    3e2c:	240214ff 	li	v0,5375
    3e30:	afc21f28 	sw	v0,7976(s8)
    3e34:	240226ad 	li	v0,9901
    3e38:	afc21f2c 	sw	v0,7980(s8)
    3e3c:	2402119f 	li	v0,4511
    3e40:	afc21f30 	sw	v0,7984(s8)
    3e44:	24021242 	li	v0,4674
    3e48:	afc21f34 	sw	v0,7988(s8)
    3e4c:	24022312 	li	v0,8978
    3e50:	afc21f38 	sw	v0,7992(s8)
    3e54:	24021491 	li	v0,5265
    3e58:	afc21f3c 	sw	v0,7996(s8)
    3e5c:	24021cd1 	li	v0,7377
    3e60:	afc21f40 	sw	v0,8000(s8)
    3e64:	24022176 	li	v0,8566
    3e68:	afc21f44 	sw	v0,8004(s8)
    3e6c:	24020ba0 	li	v0,2976
    3e70:	afc21f48 	sw	v0,8008(s8)
    3e74:	24021df5 	li	v0,7669
    3e78:	afc21f4c 	sw	v0,8012(s8)
    3e7c:	24020871 	li	v0,2161
    3e80:	afc21f50 	sw	v0,8016(s8)
    3e84:	240223ae 	li	v0,9134
    3e88:	afc21f54 	sw	v0,8020(s8)
    3e8c:	24020b11 	li	v0,2833
    3e90:	afc21f58 	sw	v0,8024(s8)
    3e94:	240211b8 	li	v0,4536
    3e98:	afc21f5c 	sw	v0,8028(s8)
    3e9c:	2402007f 	li	v0,127
    3ea0:	afc21f60 	sw	v0,8032(s8)
    3ea4:	24021afa 	li	v0,6906
    3ea8:	afc21f64 	sw	v0,8036(s8)
    3eac:	24020bb7 	li	v0,2999
    3eb0:	afc21f68 	sw	v0,8040(s8)
    3eb4:	24021e11 	li	v0,7697
    3eb8:	afc21f6c 	sw	v0,8044(s8)
    3ebc:	24020cf4 	li	v0,3316
    3ec0:	afc21f70 	sw	v0,8048(s8)
    3ec4:	2402242c 	li	v0,9260
    3ec8:	afc21f74 	sw	v0,8052(s8)
    3ecc:	24021ab7 	li	v0,6839
    3ed0:	afc21f78 	sw	v0,8056(s8)
    3ed4:	24021d92 	li	v0,7570
    3ed8:	afc21f7c 	sw	v0,8060(s8)
    3edc:	240215bf 	li	v0,5567
    3ee0:	afc21f80 	sw	v0,8064(s8)
    3ee4:	24020baa 	li	v0,2986
    3ee8:	afc21f84 	sw	v0,8068(s8)
    3eec:	24020d9e 	li	v0,3486
    3ef0:	afc21f88 	sw	v0,8072(s8)
    3ef4:	24020bc0 	li	v0,3008
    3ef8:	afc21f8c 	sw	v0,8076(s8)
    3efc:	24021687 	li	v0,5767
    3f00:	afc21f90 	sw	v0,8080(s8)
    3f04:	24021885 	li	v0,6277
    3f08:	afc21f94 	sw	v0,8084(s8)
    3f0c:	24021b36 	li	v0,6966
    3f10:	afc21f98 	sw	v0,8088(s8)
    3f14:	24020088 	li	v0,136
    3f18:	afc21f9c 	sw	v0,8092(s8)
    3f1c:	240201b3 	li	v0,435
    3f20:	afc21fa0 	sw	v0,8096(s8)
    3f24:	240221f5 	li	v0,8693
    3f28:	afc21fa4 	sw	v0,8100(s8)
    3f2c:	24020025 	li	v0,37
    3f30:	afc21fa8 	sw	v0,8104(s8)
    3f34:	24021352 	li	v0,4946
    3f38:	afc21fac 	sw	v0,8108(s8)
    3f3c:	240225f7 	li	v0,9719
    3f40:	afc21fb0 	sw	v0,8112(s8)
    3f44:	240214f7 	li	v0,5367
    3f48:	afc21fb4 	sw	v0,8116(s8)
    3f4c:	240200d4 	li	v0,212
    3f50:	afc21fb8 	sw	v0,8120(s8)
    3f54:	24021bb8 	li	v0,7096
    3f58:	afc21fbc 	sw	v0,8124(s8)
    3f5c:	24020f5e 	li	v0,3934
    3f60:	afc21fc0 	sw	v0,8128(s8)
    3f64:	24022544 	li	v0,9540
    3f68:	afc21fc4 	sw	v0,8132(s8)
    3f6c:	2402045d 	li	v0,1117
    3f70:	afc21fc8 	sw	v0,8136(s8)
    3f74:	240217cf 	li	v0,6095
    3f78:	afc21fcc 	sw	v0,8140(s8)
    3f7c:	240221e2 	li	v0,8674
    3f80:	afc21fd0 	sw	v0,8144(s8)
    3f84:	24020f6e 	li	v0,3950
    3f88:	afc21fd4 	sw	v0,8148(s8)
    3f8c:	24020277 	li	v0,631
    3f90:	afc21fd8 	sw	v0,8152(s8)
    3f94:	24022262 	li	v0,8802
    3f98:	afc21fdc 	sw	v0,8156(s8)
    3f9c:	24021c28 	li	v0,7208
    3fa0:	afc21fe0 	sw	v0,8160(s8)
    3fa4:	24020e2e 	li	v0,3630
    3fa8:	afc21fe4 	sw	v0,8164(s8)
    3fac:	24020b23 	li	v0,2851
    3fb0:	afc21fe8 	sw	v0,8168(s8)
    3fb4:	2402020d 	li	v0,525
    3fb8:	afc21fec 	sw	v0,8172(s8)
    3fbc:	2402241a 	li	v0,9242
    3fc0:	afc21ff0 	sw	v0,8176(s8)
    3fc4:	240225da 	li	v0,9690
    3fc8:	afc21ff4 	sw	v0,8180(s8)
    3fcc:	2402115f 	li	v0,4447
    3fd0:	afc21ff8 	sw	v0,8184(s8)
    3fd4:	24020489 	li	v0,1161
    3fd8:	afc21ffc 	sw	v0,8188(s8)
    3fdc:	24020a74 	li	v0,2676
    3fe0:	afc22000 	sw	v0,8192(s8)
    3fe4:	24021efe 	li	v0,7934
    3fe8:	afc22004 	sw	v0,8196(s8)
    3fec:	24021049 	li	v0,4169
    3ff0:	afc22008 	sw	v0,8200(s8)
    3ff4:	240212bb 	li	v0,4795
    3ff8:	afc2200c 	sw	v0,8204(s8)
    3ffc:	24020233 	li	v0,563
    4000:	afc22010 	sw	v0,8208(s8)
    4004:	2402046f 	li	v0,1135
    4008:	afc22014 	sw	v0,8212(s8)
    400c:	24021343 	li	v0,4931
    4010:	afc22018 	sw	v0,8216(s8)
    4014:	24021cb7 	li	v0,7351
    4018:	afc2201c 	sw	v0,8220(s8)
    401c:	24021824 	li	v0,6180
    4020:	afc22020 	sw	v0,8224(s8)
    4024:	24020528 	li	v0,1320
    4028:	afc22024 	sw	v0,8228(s8)
    402c:	240208f9 	li	v0,2297
    4030:	afc22028 	sw	v0,8232(s8)
    4034:	2402170c 	li	v0,5900
    4038:	afc2202c 	sw	v0,8236(s8)
    403c:	24021a20 	li	v0,6688
    4040:	afc22030 	sw	v0,8240(s8)
    4044:	2402229d 	li	v0,8861
    4048:	afc22034 	sw	v0,8244(s8)
    404c:	24020bb4 	li	v0,2996
    4050:	afc22038 	sw	v0,8248(s8)
    4054:	24021b3e 	li	v0,6974
    4058:	afc2203c 	sw	v0,8252(s8)
    405c:	240220d1 	li	v0,8401
    4060:	afc22040 	sw	v0,8256(s8)
    4064:	24021012 	li	v0,4114
    4068:	afc22044 	sw	v0,8260(s8)
    406c:	24020bfd 	li	v0,3069
    4070:	afc22048 	sw	v0,8264(s8)
    4074:	24020d64 	li	v0,3428
    4078:	afc2204c 	sw	v0,8268(s8)
    407c:	24021140 	li	v0,4416
    4080:	afc22050 	sw	v0,8272(s8)
    4084:	24020034 	li	v0,52
    4088:	afc22054 	sw	v0,8276(s8)
    408c:	24022186 	li	v0,8582
    4090:	afc22058 	sw	v0,8280(s8)
    4094:	24020659 	li	v0,1625
    4098:	afc2205c 	sw	v0,8284(s8)
    409c:	24020e62 	li	v0,3682
    40a0:	afc22060 	sw	v0,8288(s8)
    40a4:	24020599 	li	v0,1433
    40a8:	afc22064 	sw	v0,8292(s8)
    40ac:	24022136 	li	v0,8502
    40b0:	afc22068 	sw	v0,8296(s8)
    40b4:	2402243d 	li	v0,9277
    40b8:	afc2206c 	sw	v0,8300(s8)
    40bc:	24020463 	li	v0,1123
    40c0:	afc22070 	sw	v0,8304(s8)
    40c4:	24020b85 	li	v0,2949
    40c8:	afc22074 	sw	v0,8308(s8)
    40cc:	24021a86 	li	v0,6790
    40d0:	afc22078 	sw	v0,8312(s8)
    40d4:	24020097 	li	v0,151
    40d8:	afc2207c 	sw	v0,8316(s8)
    40dc:	24021c43 	li	v0,7235
    40e0:	afc22080 	sw	v0,8320(s8)
    40e4:	240203c0 	li	v0,960
    40e8:	afc22084 	sw	v0,8324(s8)
    40ec:	24021352 	li	v0,4946
    40f0:	afc22088 	sw	v0,8328(s8)
    40f4:	24021e77 	li	v0,7799
    40f8:	afc2208c 	sw	v0,8332(s8)
    40fc:	240220ff 	li	v0,8447
    4100:	afc22090 	sw	v0,8336(s8)
    4104:	24021855 	li	v0,6229
    4108:	afc22094 	sw	v0,8340(s8)
    410c:	240205de 	li	v0,1502
    4110:	afc22098 	sw	v0,8344(s8)
    4114:	24021214 	li	v0,4628
    4118:	afc2209c 	sw	v0,8348(s8)
    411c:	24021d7d 	li	v0,7549
    4120:	afc220a0 	sw	v0,8352(s8)
    4124:	24020ed7 	li	v0,3799
    4128:	afc220a4 	sw	v0,8356(s8)
    412c:	24020210 	li	v0,528
    4130:	afc220a8 	sw	v0,8360(s8)
    4134:	2402024d 	li	v0,589
    4138:	afc220ac 	sw	v0,8364(s8)
    413c:	24022335 	li	v0,9013
    4140:	afc220b0 	sw	v0,8368(s8)
    4144:	24022694 	li	v0,9876
    4148:	afc220b4 	sw	v0,8372(s8)
    414c:	24021d8b 	li	v0,7563
    4150:	afc220b8 	sw	v0,8376(s8)
    4154:	24020eb6 	li	v0,3766
    4158:	afc220bc 	sw	v0,8380(s8)
    415c:	24020f96 	li	v0,3990
    4160:	afc220c0 	sw	v0,8384(s8)
    4164:	24021b48 	li	v0,6984
    4168:	afc220c4 	sw	v0,8388(s8)
    416c:	24021c1a 	li	v0,7194
    4170:	afc220c8 	sw	v0,8392(s8)
    4174:	24021297 	li	v0,4759
    4178:	afc220cc 	sw	v0,8396(s8)
    417c:	24021b7c 	li	v0,7036
    4180:	afc220d0 	sw	v0,8400(s8)
    4184:	24021690 	li	v0,5776
    4188:	afc220d4 	sw	v0,8404(s8)
    418c:	240218f0 	li	v0,6384
    4190:	afc220d8 	sw	v0,8408(s8)
    4194:	24021b9f 	li	v0,7071
    4198:	afc220dc 	sw	v0,8412(s8)
    419c:	24021c29 	li	v0,7209
    41a0:	afc220e0 	sw	v0,8416(s8)
    41a4:	240204d6 	li	v0,1238
    41a8:	afc220e4 	sw	v0,8420(s8)
    41ac:	24020a8c 	li	v0,2700
    41b0:	afc220e8 	sw	v0,8424(s8)
    41b4:	2402124c 	li	v0,4684
    41b8:	afc220ec 	sw	v0,8428(s8)
    41bc:	2402021b 	li	v0,539
    41c0:	afc220f0 	sw	v0,8432(s8)
    41c4:	24022512 	li	v0,9490
    41c8:	afc220f4 	sw	v0,8436(s8)
    41cc:	240212e3 	li	v0,4835
    41d0:	afc220f8 	sw	v0,8440(s8)
    41d4:	24021e5f 	li	v0,7775
    41d8:	afc220fc 	sw	v0,8444(s8)
    41dc:	240201c2 	li	v0,450
    41e0:	afc22100 	sw	v0,8448(s8)
    41e4:	24022635 	li	v0,9781
    41e8:	afc22104 	sw	v0,8452(s8)
    41ec:	24020786 	li	v0,1926
    41f0:	afc22108 	sw	v0,8456(s8)
    41f4:	24021482 	li	v0,5250
    41f8:	afc2210c 	sw	v0,8460(s8)
    41fc:	2402093a 	li	v0,2362
    4200:	afc22110 	sw	v0,8464(s8)
    4204:	24020d64 	li	v0,3428
    4208:	afc22114 	sw	v0,8468(s8)
    420c:	24022696 	li	v0,9878
    4210:	afc22118 	sw	v0,8472(s8)
    4214:	24021878 	li	v0,6264
    4218:	afc2211c 	sw	v0,8476(s8)
    421c:	24020dfb 	li	v0,3579
    4220:	afc22120 	sw	v0,8480(s8)
    4224:	24021a66 	li	v0,6758
    4228:	afc22124 	sw	v0,8484(s8)
    422c:	24021ac5 	li	v0,6853
    4230:	afc22128 	sw	v0,8488(s8)
    4234:	240222f0 	li	v0,8944
    4238:	afc2212c 	sw	v0,8492(s8)
    423c:	240219ea 	li	v0,6634
    4240:	afc22130 	sw	v0,8496(s8)
    4244:	24020301 	li	v0,769
    4248:	afc22134 	sw	v0,8500(s8)
    424c:	24020a97 	li	v0,2711
    4250:	afc22138 	sw	v0,8504(s8)
    4254:	24021b41 	li	v0,6977
    4258:	afc2213c 	sw	v0,8508(s8)
    425c:	24021009 	li	v0,4105
    4260:	afc22140 	sw	v0,8512(s8)
    4264:	24021871 	li	v0,6257
    4268:	afc22144 	sw	v0,8516(s8)
    426c:	240206c8 	li	v0,1736
    4270:	afc22148 	sw	v0,8520(s8)
    4274:	24020476 	li	v0,1142
    4278:	afc2214c 	sw	v0,8524(s8)
    427c:	240207f2 	li	v0,2034
    4280:	afc22150 	sw	v0,8528(s8)
    4284:	24021178 	li	v0,4472
    4288:	afc22154 	sw	v0,8532(s8)
    428c:	240211d5 	li	v0,4565
    4290:	afc22158 	sw	v0,8536(s8)
    4294:	240215db 	li	v0,5595
    4298:	afc2215c 	sw	v0,8540(s8)
    429c:	2402164e 	li	v0,5710
    42a0:	afc22160 	sw	v0,8544(s8)
    42a4:	24021c61 	li	v0,7265
    42a8:	afc22164 	sw	v0,8548(s8)
    42ac:	240219e8 	li	v0,6632
    42b0:	afc22168 	sw	v0,8552(s8)
    42b4:	24021869 	li	v0,6249
    42b8:	afc2216c 	sw	v0,8556(s8)
    42bc:	24020c23 	li	v0,3107
    42c0:	afc22170 	sw	v0,8560(s8)
    42c4:	240205bb 	li	v0,1467
    42c8:	afc22174 	sw	v0,8564(s8)
    42cc:	24020178 	li	v0,376
    42d0:	afc22178 	sw	v0,8568(s8)
    42d4:	24020de6 	li	v0,3558
    42d8:	afc2217c 	sw	v0,8572(s8)
    42dc:	24021db1 	li	v0,7601
    42e0:	afc22180 	sw	v0,8576(s8)
    42e4:	240208fe 	li	v0,2302
    42e8:	afc22184 	sw	v0,8580(s8)
    42ec:	24021428 	li	v0,5160
    42f0:	afc22188 	sw	v0,8584(s8)
    42f4:	240226eb 	li	v0,9963
    42f8:	afc2218c 	sw	v0,8588(s8)
    42fc:	24020822 	li	v0,2082
    4300:	afc22190 	sw	v0,8592(s8)
    4304:	240213ae 	li	v0,5038
    4308:	afc22194 	sw	v0,8596(s8)
    430c:	24021853 	li	v0,6227
    4310:	afc22198 	sw	v0,8600(s8)
    4314:	240207de 	li	v0,2014
    4318:	afc2219c 	sw	v0,8604(s8)
    431c:	24020704 	li	v0,1796
    4320:	afc221a0 	sw	v0,8608(s8)
    4324:	240224d9 	li	v0,9433
    4328:	afc221a4 	sw	v0,8612(s8)
    432c:	240203be 	li	v0,958
    4330:	afc221a8 	sw	v0,8616(s8)
    4334:	240220ee 	li	v0,8430
    4338:	afc221ac 	sw	v0,8620(s8)
    433c:	2402199a 	li	v0,6554
    4340:	afc221b0 	sw	v0,8624(s8)
    4344:	24020e55 	li	v0,3669
    4348:	afc221b4 	sw	v0,8628(s8)
    434c:	2402151f 	li	v0,5407
    4350:	afc221b8 	sw	v0,8632(s8)
    4354:	24020293 	li	v0,659
    4358:	afc221bc 	sw	v0,8636(s8)
    435c:	240226c7 	li	v0,9927
    4360:	afc221c0 	sw	v0,8640(s8)
    4364:	24020da7 	li	v0,3495
    4368:	afc221c4 	sw	v0,8644(s8)
    436c:	24020709 	li	v0,1801
    4370:	afc221c8 	sw	v0,8648(s8)
    4374:	24022079 	li	v0,8313
    4378:	afc221cc 	sw	v0,8652(s8)
    437c:	24021f1f 	li	v0,7967
    4380:	afc221d0 	sw	v0,8656(s8)
    4384:	24020a9e 	li	v0,2718
    4388:	afc221d4 	sw	v0,8660(s8)
    438c:	24020104 	li	v0,260
    4390:	afc221d8 	sw	v0,8664(s8)
    4394:	2402001d 	li	v0,29
    4398:	afc221dc 	sw	v0,8668(s8)
    439c:	240218bf 	li	v0,6335
    43a0:	afc221e0 	sw	v0,8672(s8)
    43a4:	24021aec 	li	v0,6892
    43a8:	afc221e4 	sw	v0,8676(s8)
    43ac:	24020a47 	li	v0,2631
    43b0:	afc221e8 	sw	v0,8680(s8)
    43b4:	240224e3 	li	v0,9443
    43b8:	afc221ec 	sw	v0,8684(s8)
    43bc:	24021268 	li	v0,4712
    43c0:	afc221f0 	sw	v0,8688(s8)
    43c4:	24020bbf 	li	v0,3007
    43c8:	afc221f4 	sw	v0,8692(s8)
    43cc:	24022489 	li	v0,9353
    43d0:	afc221f8 	sw	v0,8696(s8)
    43d4:	24020909 	li	v0,2313
    43d8:	afc221fc 	sw	v0,8700(s8)
    43dc:	2402067e 	li	v0,1662
    43e0:	afc22200 	sw	v0,8704(s8)
    43e4:	240211a1 	li	v0,4513
    43e8:	afc22204 	sw	v0,8708(s8)
    43ec:	240221b4 	li	v0,8628
    43f0:	afc22208 	sw	v0,8712(s8)
    43f4:	24020060 	li	v0,96
    43f8:	afc2220c 	sw	v0,8716(s8)
    43fc:	2402254f 	li	v0,9551
    4400:	afc22210 	sw	v0,8720(s8)
    4404:	240212f8 	li	v0,4856
    4408:	afc22214 	sw	v0,8724(s8)
    440c:	2402083e 	li	v0,2110
    4410:	afc22218 	sw	v0,8728(s8)
    4414:	24021e13 	li	v0,7699
    4418:	afc2221c 	sw	v0,8732(s8)
    441c:	24020281 	li	v0,641
    4420:	afc22220 	sw	v0,8736(s8)
    4424:	24020bfd 	li	v0,3069
    4428:	afc22224 	sw	v0,8740(s8)
    442c:	240209b1 	li	v0,2481
    4430:	afc22228 	sw	v0,8744(s8)
    4434:	24021c1b 	li	v0,7195
    4438:	afc2222c 	sw	v0,8748(s8)
    443c:	24020c12 	li	v0,3090
    4440:	afc22230 	sw	v0,8752(s8)
    4444:	24021ed1 	li	v0,7889
    4448:	afc22234 	sw	v0,8756(s8)
    444c:	24021eae 	li	v0,7854
    4450:	afc22238 	sw	v0,8760(s8)
    4454:	24022499 	li	v0,9369
    4458:	afc2223c 	sw	v0,8764(s8)
    445c:	24021e38 	li	v0,7736
    4460:	afc22240 	sw	v0,8768(s8)
    4464:	24021778 	li	v0,6008
    4468:	afc22244 	sw	v0,8772(s8)
    446c:	24021e02 	li	v0,7682
    4470:	afc22248 	sw	v0,8776(s8)
    4474:	24021648 	li	v0,5704
    4478:	afc2224c 	sw	v0,8780(s8)
    447c:	24022216 	li	v0,8726
    4480:	afc22250 	sw	v0,8784(s8)
    4484:	240210c7 	li	v0,4295
    4488:	afc22254 	sw	v0,8788(s8)
    448c:	24021665 	li	v0,5733
    4490:	afc22258 	sw	v0,8792(s8)
    4494:	24020586 	li	v0,1414
    4498:	afc2225c 	sw	v0,8796(s8)
    449c:	240204a3 	li	v0,1187
    44a0:	afc22260 	sw	v0,8800(s8)
    44a4:	240220ac 	li	v0,8364
    44a8:	afc22264 	sw	v0,8804(s8)
    44ac:	24020359 	li	v0,857
    44b0:	afc22268 	sw	v0,8808(s8)
    44b4:	240208cb 	li	v0,2251
    44b8:	afc2226c 	sw	v0,8812(s8)
    44bc:	24021e2c 	li	v0,7724
    44c0:	afc22270 	sw	v0,8816(s8)
    44c4:	240200d2 	li	v0,210
    44c8:	afc22274 	sw	v0,8820(s8)
    44cc:	240211d4 	li	v0,4564
    44d0:	afc22278 	sw	v0,8824(s8)
    44d4:	2402166a 	li	v0,5738
    44d8:	afc2227c 	sw	v0,8828(s8)
    44dc:	24021273 	li	v0,4723
    44e0:	afc22280 	sw	v0,8832(s8)
    44e4:	24020c79 	li	v0,3193
    44e8:	afc22284 	sw	v0,8836(s8)
    44ec:	240216ca 	li	v0,5834
    44f0:	afc22288 	sw	v0,8840(s8)
    44f4:	24020272 	li	v0,626
    44f8:	afc2228c 	sw	v0,8844(s8)
    44fc:	24021131 	li	v0,4401
    4500:	afc22290 	sw	v0,8848(s8)
    4504:	24021f09 	li	v0,7945
    4508:	afc22294 	sw	v0,8852(s8)
    450c:	24022085 	li	v0,8325
    4510:	afc22298 	sw	v0,8856(s8)
    4514:	24020572 	li	v0,1394
    4518:	afc2229c 	sw	v0,8860(s8)
    451c:	24021cc6 	li	v0,7366
    4520:	afc222a0 	sw	v0,8864(s8)
    4524:	24020326 	li	v0,806
    4528:	afc222a4 	sw	v0,8868(s8)
    452c:	2402218d 	li	v0,8589
    4530:	afc222a8 	sw	v0,8872(s8)
    4534:	240201c8 	li	v0,456
    4538:	afc222ac 	sw	v0,8876(s8)
    453c:	240213b7 	li	v0,5047
    4540:	afc222b0 	sw	v0,8880(s8)
    4544:	24020aeb 	li	v0,2795
    4548:	afc222b4 	sw	v0,8884(s8)
    454c:	24022662 	li	v0,9826
    4550:	afc222b8 	sw	v0,8888(s8)
    4554:	24020ae0 	li	v0,2784
    4558:	afc222bc 	sw	v0,8892(s8)
    455c:	24022263 	li	v0,8803
    4560:	afc222c0 	sw	v0,8896(s8)
    4564:	24020f14 	li	v0,3860
    4568:	afc222c4 	sw	v0,8900(s8)
    456c:	240212e8 	li	v0,4840
    4570:	afc222c8 	sw	v0,8904(s8)
    4574:	24020f2a 	li	v0,3882
    4578:	afc222cc 	sw	v0,8908(s8)
    457c:	24021fdb 	li	v0,8155
    4580:	afc222d0 	sw	v0,8912(s8)
    4584:	2402023d 	li	v0,573
    4588:	afc222d4 	sw	v0,8916(s8)
    458c:	24020670 	li	v0,1648
    4590:	afc222d8 	sw	v0,8920(s8)
    4594:	2402163f 	li	v0,5695
    4598:	afc222dc 	sw	v0,8924(s8)
    459c:	240214aa 	li	v0,5290
    45a0:	afc222e0 	sw	v0,8928(s8)
    45a4:	240209c9 	li	v0,2505
    45a8:	afc222e4 	sw	v0,8932(s8)
    45ac:	24021f0a 	li	v0,7946
    45b0:	afc222e8 	sw	v0,8936(s8)
    45b4:	24022496 	li	v0,9366
    45b8:	afc222ec 	sw	v0,8940(s8)
    45bc:	2402236b 	li	v0,9067
    45c0:	afc222f0 	sw	v0,8944(s8)
    45c4:	2402229f 	li	v0,8863
    45c8:	afc222f4 	sw	v0,8948(s8)
    45cc:	240213f0 	li	v0,5104
    45d0:	afc222f8 	sw	v0,8952(s8)
    45d4:	24020ece 	li	v0,3790
    45d8:	afc222fc 	sw	v0,8956(s8)
    45dc:	240220d8 	li	v0,8408
    45e0:	afc22300 	sw	v0,8960(s8)
    45e4:	24021c7a 	li	v0,7290
    45e8:	afc22304 	sw	v0,8964(s8)
    45ec:	24020300 	li	v0,768
    45f0:	afc22308 	sw	v0,8968(s8)
    45f4:	240223c9 	li	v0,9161
    45f8:	afc2230c 	sw	v0,8972(s8)
    45fc:	24021473 	li	v0,5235
    4600:	afc22310 	sw	v0,8976(s8)
    4604:	24022385 	li	v0,9093
    4608:	afc22314 	sw	v0,8980(s8)
    460c:	2402022b 	li	v0,555
    4610:	afc22318 	sw	v0,8984(s8)
    4614:	24020a29 	li	v0,2601
    4618:	afc2231c 	sw	v0,8988(s8)
    461c:	2402186b 	li	v0,6251
    4620:	afc22320 	sw	v0,8992(s8)
    4624:	240223b8 	li	v0,9144
    4628:	afc22324 	sw	v0,8996(s8)
    462c:	240224c2 	li	v0,9410
    4630:	afc22328 	sw	v0,9000(s8)
    4634:	24021de3 	li	v0,7651
    4638:	afc2232c 	sw	v0,9004(s8)
    463c:	24022063 	li	v0,8291
    4640:	afc22330 	sw	v0,9008(s8)
    4644:	240215d4 	li	v0,5588
    4648:	afc22334 	sw	v0,9012(s8)
    464c:	240201b3 	li	v0,435
    4650:	afc22338 	sw	v0,9016(s8)
    4654:	24020d77 	li	v0,3447
    4658:	afc2233c 	sw	v0,9020(s8)
    465c:	240224e8 	li	v0,9448
    4660:	afc22340 	sw	v0,9024(s8)
    4664:	2402149b 	li	v0,5275
    4668:	afc22344 	sw	v0,9028(s8)
    466c:	24020e61 	li	v0,3681
    4670:	afc22348 	sw	v0,9032(s8)
    4674:	24020f74 	li	v0,3956
    4678:	afc2234c 	sw	v0,9036(s8)
    467c:	24020898 	li	v0,2200
    4680:	afc22350 	sw	v0,9040(s8)
    4684:	240214d1 	li	v0,5329
    4688:	afc22354 	sw	v0,9044(s8)
    468c:	240225b3 	li	v0,9651
    4690:	afc22358 	sw	v0,9048(s8)
    4694:	24020f02 	li	v0,3842
    4698:	afc2235c 	sw	v0,9052(s8)
    469c:	24021e9a 	li	v0,7834
    46a0:	afc22360 	sw	v0,9056(s8)
    46a4:	24020f6d 	li	v0,3949
    46a8:	afc22364 	sw	v0,9060(s8)
    46ac:	24022558 	li	v0,9560
    46b0:	afc22368 	sw	v0,9064(s8)
    46b4:	24021af5 	li	v0,6901
    46b8:	afc2236c 	sw	v0,9068(s8)
    46bc:	240223cc 	li	v0,9164
    46c0:	afc22370 	sw	v0,9072(s8)
    46c4:	24021238 	li	v0,4664
    46c8:	afc22374 	sw	v0,9076(s8)
    46cc:	24021b83 	li	v0,7043
    46d0:	afc22378 	sw	v0,9080(s8)
    46d4:	24021d94 	li	v0,7572
    46d8:	afc2237c 	sw	v0,9084(s8)
    46dc:	240207a3 	li	v0,1955
    46e0:	afc22380 	sw	v0,9088(s8)
    46e4:	24021e83 	li	v0,7811
    46e8:	afc22384 	sw	v0,9092(s8)
    46ec:	24021a4d 	li	v0,6733
    46f0:	afc22388 	sw	v0,9096(s8)
    46f4:	24020dd6 	li	v0,3542
    46f8:	afc2238c 	sw	v0,9100(s8)
    46fc:	24020cb8 	li	v0,3256
    4700:	afc22390 	sw	v0,9104(s8)
    4704:	24020e38 	li	v0,3640
    4708:	afc22394 	sw	v0,9108(s8)
    470c:	240209c0 	li	v0,2496
    4710:	afc22398 	sw	v0,9112(s8)
    4714:	240216e3 	li	v0,5859
    4718:	afc2239c 	sw	v0,9116(s8)
    471c:	240223b0 	li	v0,9136
    4720:	afc223a0 	sw	v0,9120(s8)
    4724:	24022042 	li	v0,8258
    4728:	afc223a4 	sw	v0,9124(s8)
    472c:	24020db6 	li	v0,3510
    4730:	afc223a8 	sw	v0,9128(s8)
    4734:	24021d04 	li	v0,7428
    4738:	afc223ac 	sw	v0,9132(s8)
    473c:	24020f06 	li	v0,3846
    4740:	afc223b0 	sw	v0,9136(s8)
    4744:	24020129 	li	v0,297
    4748:	afc223b4 	sw	v0,9140(s8)
    474c:	2402036b 	li	v0,875
    4750:	afc223b8 	sw	v0,9144(s8)
    4754:	24020cde 	li	v0,3294
    4758:	afc223bc 	sw	v0,9148(s8)
    475c:	24020784 	li	v0,1924
    4760:	afc223c0 	sw	v0,9152(s8)
    4764:	240211cc 	li	v0,4556
    4768:	afc223c4 	sw	v0,9156(s8)
    476c:	24021c52 	li	v0,7250
    4770:	afc223c8 	sw	v0,9160(s8)
    4774:	2402101d 	li	v0,4125
    4778:	afc223cc 	sw	v0,9164(s8)
    477c:	2402269d 	li	v0,9885
    4780:	afc223d0 	sw	v0,9168(s8)
    4784:	24020cb5 	li	v0,3253
    4788:	afc223d4 	sw	v0,9172(s8)
    478c:	240210df 	li	v0,4319
    4790:	afc223d8 	sw	v0,9176(s8)
    4794:	24020fe7 	li	v0,4071
    4798:	afc223dc 	sw	v0,9180(s8)
    479c:	24020de3 	li	v0,3555
    47a0:	afc223e0 	sw	v0,9184(s8)
    47a4:	24020f28 	li	v0,3880
    47a8:	afc223e4 	sw	v0,9188(s8)
    47ac:	24021c9c 	li	v0,7324
    47b0:	afc223e8 	sw	v0,9192(s8)
    47b4:	24020a9f 	li	v0,2719
    47b8:	afc223ec 	sw	v0,9196(s8)
    47bc:	24021320 	li	v0,4896
    47c0:	afc223f0 	sw	v0,9200(s8)
    47c4:	2402110f 	li	v0,4367
    47c8:	afc223f4 	sw	v0,9204(s8)
    47cc:	240219f4 	li	v0,6644
    47d0:	afc223f8 	sw	v0,9208(s8)
    47d4:	24020c83 	li	v0,3203
    47d8:	afc223fc 	sw	v0,9212(s8)
    47dc:	24022152 	li	v0,8530
    47e0:	afc22400 	sw	v0,9216(s8)
    47e4:	24022601 	li	v0,9729
    47e8:	afc22404 	sw	v0,9220(s8)
    47ec:	24021a5a 	li	v0,6746
    47f0:	afc22408 	sw	v0,9224(s8)
    47f4:	240206fa 	li	v0,1786
    47f8:	afc2240c 	sw	v0,9228(s8)
    47fc:	24020d2a 	li	v0,3370
    4800:	afc22410 	sw	v0,9232(s8)
    4804:	240215da 	li	v0,5594
    4808:	afc22414 	sw	v0,9236(s8)
    480c:	24021ddd 	li	v0,7645
    4810:	afc22418 	sw	v0,9240(s8)
    4814:	2402229a 	li	v0,8858
    4818:	afc2241c 	sw	v0,9244(s8)
    481c:	24020f0c 	li	v0,3852
    4820:	afc22420 	sw	v0,9248(s8)
    4824:	24021d54 	li	v0,7508
    4828:	afc22424 	sw	v0,9252(s8)
    482c:	2402188e 	li	v0,6286
    4830:	afc22428 	sw	v0,9256(s8)
    4834:	24021e12 	li	v0,7698
    4838:	afc2242c 	sw	v0,9260(s8)
    483c:	24021e7d 	li	v0,7805
    4840:	afc22430 	sw	v0,9264(s8)
    4844:	24020db9 	li	v0,3513
    4848:	afc22434 	sw	v0,9268(s8)
    484c:	24021cb0 	li	v0,7344
    4850:	afc22438 	sw	v0,9272(s8)
    4854:	24022602 	li	v0,9730
    4858:	afc2243c 	sw	v0,9276(s8)
    485c:	24021145 	li	v0,4421
    4860:	afc22440 	sw	v0,9280(s8)
    4864:	240203b3 	li	v0,947
    4868:	afc22444 	sw	v0,9284(s8)
    486c:	240200cf 	li	v0,207
    4870:	afc22448 	sw	v0,9288(s8)
    4874:	24020292 	li	v0,658
    4878:	afc2244c 	sw	v0,9292(s8)
    487c:	24021068 	li	v0,4200
    4880:	afc22450 	sw	v0,9296(s8)
    4884:	2402036e 	li	v0,878
    4888:	afc22454 	sw	v0,9300(s8)
    488c:	24021279 	li	v0,4729
    4890:	afc22458 	sw	v0,9304(s8)
    4894:	2402100b 	li	v0,4107
    4898:	afc2245c 	sw	v0,9308(s8)
    489c:	24021296 	li	v0,4758
    48a0:	afc22460 	sw	v0,9312(s8)
    48a4:	24020805 	li	v0,2053
    48a8:	afc22464 	sw	v0,9316(s8)
    48ac:	24020c6b 	li	v0,3179
    48b0:	afc22468 	sw	v0,9320(s8)
    48b4:	24021777 	li	v0,6007
    48b8:	afc2246c 	sw	v0,9324(s8)
    48bc:	24020ad4 	li	v0,2772
    48c0:	afc22470 	sw	v0,9328(s8)
    48c4:	2402181f 	li	v0,6175
    48c8:	afc22474 	sw	v0,9332(s8)
    48cc:	240223fa 	li	v0,9210
    48d0:	afc22478 	sw	v0,9336(s8)
    48d4:	24020516 	li	v0,1302
    48d8:	afc2247c 	sw	v0,9340(s8)
    48dc:	24021710 	li	v0,5904
    48e0:	afc22480 	sw	v0,9344(s8)
    48e4:	24020904 	li	v0,2308
    48e8:	afc22484 	sw	v0,9348(s8)
    48ec:	240224e0 	li	v0,9440
    48f0:	afc22488 	sw	v0,9352(s8)
    48f4:	240215fa 	li	v0,5626
    48f8:	afc2248c 	sw	v0,9356(s8)
    48fc:	24021ede 	li	v0,7902
    4900:	afc22490 	sw	v0,9360(s8)
    4904:	24021bae 	li	v0,7086
    4908:	afc22494 	sw	v0,9364(s8)
    490c:	24021185 	li	v0,4485
    4910:	afc22498 	sw	v0,9368(s8)
    4914:	24021faa 	li	v0,8106
    4918:	afc2249c 	sw	v0,9372(s8)
    491c:	240203b2 	li	v0,946
    4920:	afc224a0 	sw	v0,9376(s8)
    4924:	24021bd3 	li	v0,7123
    4928:	afc224a4 	sw	v0,9380(s8)
    492c:	240216ac 	li	v0,5804
    4930:	afc224a8 	sw	v0,9384(s8)
    4934:	2402222f 	li	v0,8751
    4938:	afc224ac 	sw	v0,9388(s8)
    493c:	2402027d 	li	v0,637
    4940:	afc224b0 	sw	v0,9392(s8)
    4944:	2402251d 	li	v0,9501
    4948:	afc224b4 	sw	v0,9396(s8)
    494c:	240212e1 	li	v0,4833
    4950:	afc224b8 	sw	v0,9400(s8)
    4954:	24020582 	li	v0,1410
    4958:	afc224bc 	sw	v0,9404(s8)
    495c:	240201c0 	li	v0,448
    4960:	afc224c0 	sw	v0,9408(s8)
    4964:	24020570 	li	v0,1392
    4968:	afc224c4 	sw	v0,9412(s8)
    496c:	24020815 	li	v0,2069
    4970:	afc224c8 	sw	v0,9416(s8)
    4974:	240203e8 	li	v0,1000
    4978:	afc224cc 	sw	v0,9420(s8)
    497c:	240208df 	li	v0,2271
    4980:	afc224d0 	sw	v0,9424(s8)
    4984:	24020c4e 	li	v0,3150
    4988:	afc224d4 	sw	v0,9428(s8)
    498c:	240213f4 	li	v0,5108
    4990:	afc224d8 	sw	v0,9432(s8)
    4994:	24020d35 	li	v0,3381
    4998:	afc224dc 	sw	v0,9436(s8)
    499c:	24020614 	li	v0,1556
    49a0:	afc224e0 	sw	v0,9440(s8)
    49a4:	2402205f 	li	v0,8287
    49a8:	afc224e4 	sw	v0,9444(s8)
    49ac:	240224ac 	li	v0,9388
    49b0:	afc224e8 	sw	v0,9448(s8)
    49b4:	240210e8 	li	v0,4328
    49b8:	afc224ec 	sw	v0,9452(s8)
    49bc:	2402116e 	li	v0,4462
    49c0:	afc224f0 	sw	v0,9456(s8)
    49c4:	24021357 	li	v0,4951
    49c8:	afc224f4 	sw	v0,9460(s8)
    49cc:	240207bf 	li	v0,1983
    49d0:	afc224f8 	sw	v0,9464(s8)
    49d4:	24021a3e 	li	v0,6718
    49d8:	afc224fc 	sw	v0,9468(s8)
    49dc:	24021c5b 	li	v0,7259
    49e0:	afc22500 	sw	v0,9472(s8)
    49e4:	2402058f 	li	v0,1423
    49e8:	afc22504 	sw	v0,9476(s8)
    49ec:	24020929 	li	v0,2345
    49f0:	afc22508 	sw	v0,9480(s8)
    49f4:	240205ea 	li	v0,1514
    49f8:	afc2250c 	sw	v0,9484(s8)
    49fc:	240212fd 	li	v0,4861
    4a00:	afc22510 	sw	v0,9488(s8)
    4a04:	24020c6e 	li	v0,3182
    4a08:	afc22514 	sw	v0,9492(s8)
    4a0c:	24021754 	li	v0,5972
    4a10:	afc22518 	sw	v0,9496(s8)
    4a14:	240216af 	li	v0,5807
    4a18:	afc2251c 	sw	v0,9500(s8)
    4a1c:	24021a01 	li	v0,6657
    4a20:	afc22520 	sw	v0,9504(s8)
    4a24:	24021fc1 	li	v0,8129
    4a28:	afc22524 	sw	v0,9508(s8)
    4a2c:	2402038f 	li	v0,911
    4a30:	afc22528 	sw	v0,9512(s8)
    4a34:	24021c7e 	li	v0,7294
    4a38:	afc2252c 	sw	v0,9516(s8)
    4a3c:	24021dce 	li	v0,7630
    4a40:	afc22530 	sw	v0,9520(s8)
    4a44:	24021670 	li	v0,5744
    4a48:	afc22534 	sw	v0,9524(s8)
    4a4c:	240213c1 	li	v0,5057
    4a50:	afc22538 	sw	v0,9528(s8)
    4a54:	24021f8e 	li	v0,8078
    4a58:	afc2253c 	sw	v0,9532(s8)
    4a5c:	24021be1 	li	v0,7137
    4a60:	afc22540 	sw	v0,9536(s8)
    4a64:	24021bd6 	li	v0,7126
    4a68:	afc22544 	sw	v0,9540(s8)
    4a6c:	24022376 	li	v0,9078
    4a70:	afc22548 	sw	v0,9544(s8)
    4a74:	24021680 	li	v0,5760
    4a78:	afc2254c 	sw	v0,9548(s8)
    4a7c:	240219e4 	li	v0,6628
    4a80:	afc22550 	sw	v0,9552(s8)
    4a84:	2402105a 	li	v0,4186
    4a88:	afc22554 	sw	v0,9556(s8)
    4a8c:	240223b5 	li	v0,9141
    4a90:	afc22558 	sw	v0,9560(s8)
    4a94:	24021ff8 	li	v0,8184
    4a98:	afc2255c 	sw	v0,9564(s8)
    4a9c:	24022279 	li	v0,8825
    4aa0:	afc22560 	sw	v0,9568(s8)
    4aa4:	24021312 	li	v0,4882
    4aa8:	afc22564 	sw	v0,9572(s8)
    4aac:	240222a1 	li	v0,8865
    4ab0:	afc22568 	sw	v0,9576(s8)
    4ab4:	240225a7 	li	v0,9639
    4ab8:	afc2256c 	sw	v0,9580(s8)
    4abc:	24022669 	li	v0,9833
    4ac0:	afc22570 	sw	v0,9584(s8)
    4ac4:	24020350 	li	v0,848
    4ac8:	afc22574 	sw	v0,9588(s8)
    4acc:	240218d6 	li	v0,6358
    4ad0:	afc22578 	sw	v0,9592(s8)
    4ad4:	24020d74 	li	v0,3444
    4ad8:	afc2257c 	sw	v0,9596(s8)
    4adc:	240221af 	li	v0,8623
    4ae0:	afc22580 	sw	v0,9600(s8)
    4ae4:	240213bf 	li	v0,5055
    4ae8:	afc22584 	sw	v0,9604(s8)
    4aec:	2402051e 	li	v0,1310
    4af0:	afc22588 	sw	v0,9608(s8)
    4af4:	24020d9d 	li	v0,3485
    4af8:	afc2258c 	sw	v0,9612(s8)
    4afc:	240211ed 	li	v0,4589
    4b00:	afc22590 	sw	v0,9616(s8)
    4b04:	24021c73 	li	v0,7283
    4b08:	afc22594 	sw	v0,9620(s8)
    4b0c:	2402160c 	li	v0,5644
    4b10:	afc22598 	sw	v0,9624(s8)
    4b14:	240204de 	li	v0,1246
    4b18:	afc2259c 	sw	v0,9628(s8)
    4b1c:	24021524 	li	v0,5412
    4b20:	afc225a0 	sw	v0,9632(s8)
    4b24:	2402199b 	li	v0,6555
    4b28:	afc225a4 	sw	v0,9636(s8)
    4b2c:	2402131d 	li	v0,4893
    4b30:	afc225a8 	sw	v0,9640(s8)
    4b34:	24020be2 	li	v0,3042
    4b38:	afc225ac 	sw	v0,9644(s8)
    4b3c:	240208fc 	li	v0,2300
    4b40:	afc225b0 	sw	v0,9648(s8)
    4b44:	240226de 	li	v0,9950
    4b48:	afc225b4 	sw	v0,9652(s8)
    4b4c:	24020460 	li	v0,1120
    4b50:	afc225b8 	sw	v0,9656(s8)
    4b54:	2402169d 	li	v0,5789
    4b58:	afc225bc 	sw	v0,9660(s8)
    4b5c:	24020d64 	li	v0,3428
    4b60:	afc225c0 	sw	v0,9664(s8)
    4b64:	24021996 	li	v0,6550
    4b68:	afc225c4 	sw	v0,9668(s8)
    4b6c:	2402060d 	li	v0,1549
    4b70:	afc225c8 	sw	v0,9672(s8)
    4b74:	24020038 	li	v0,56
    4b78:	afc225cc 	sw	v0,9676(s8)
    4b7c:	240202e1 	li	v0,737
    4b80:	afc225d0 	sw	v0,9680(s8)
    4b84:	24021b82 	li	v0,7042
    4b88:	afc225d4 	sw	v0,9684(s8)
    4b8c:	24022031 	li	v0,8241
    4b90:	afc225d8 	sw	v0,9688(s8)
    4b94:	2402171a 	li	v0,5914
    4b98:	afc225dc 	sw	v0,9692(s8)
    4b9c:	24020784 	li	v0,1924
    4ba0:	afc225e0 	sw	v0,9696(s8)
    4ba4:	24020d82 	li	v0,3458
    4ba8:	afc225e4 	sw	v0,9700(s8)
    4bac:	240215b2 	li	v0,5554
    4bb0:	afc225e8 	sw	v0,9704(s8)
    4bb4:	24021fad 	li	v0,8109
    4bb8:	afc225ec 	sw	v0,9708(s8)
    4bbc:	24020292 	li	v0,658
    4bc0:	afc225f0 	sw	v0,9712(s8)
    4bc4:	24022048 	li	v0,8264
    4bc8:	afc225f4 	sw	v0,9716(s8)
    4bcc:	24020612 	li	v0,1554
    4bd0:	afc225f8 	sw	v0,9720(s8)
    4bd4:	24022441 	li	v0,9281
    4bd8:	afc225fc 	sw	v0,9724(s8)
    4bdc:	24020cf7 	li	v0,3319
    4be0:	afc22600 	sw	v0,9728(s8)
    4be4:	24022400 	li	v0,9216
    4be8:	afc22604 	sw	v0,9732(s8)
    4bec:	2402239e 	li	v0,9118
    4bf0:	afc22608 	sw	v0,9736(s8)
    4bf4:	240210a4 	li	v0,4260
    4bf8:	afc2260c 	sw	v0,9740(s8)
    4bfc:	24021963 	li	v0,6499
    4c00:	afc22610 	sw	v0,9744(s8)
    4c04:	2402129b 	li	v0,4763
    4c08:	afc22614 	sw	v0,9748(s8)
    4c0c:	24021582 	li	v0,5506
    4c10:	afc22618 	sw	v0,9752(s8)
    4c14:	24022047 	li	v0,8263
    4c18:	afc2261c 	sw	v0,9756(s8)
    4c1c:	24020526 	li	v0,1318
    4c20:	afc22620 	sw	v0,9760(s8)
    4c24:	2402018f 	li	v0,399
    4c28:	afc22624 	sw	v0,9764(s8)
    4c2c:	24020519 	li	v0,1305
    4c30:	afc22628 	sw	v0,9768(s8)
    4c34:	240226f2 	li	v0,9970
    4c38:	afc2262c 	sw	v0,9772(s8)
    4c3c:	24021a2d 	li	v0,6701
    4c40:	afc22630 	sw	v0,9776(s8)
    4c44:	24022249 	li	v0,8777
    4c48:	afc22634 	sw	v0,9780(s8)
    4c4c:	2402083f 	li	v0,2111
    4c50:	afc22638 	sw	v0,9784(s8)
    4c54:	24020081 	li	v0,129
    4c58:	afc2263c 	sw	v0,9788(s8)
    4c5c:	240214d0 	li	v0,5328
    4c60:	afc22640 	sw	v0,9792(s8)
    4c64:	2402000c 	li	v0,12
    4c68:	afc22644 	sw	v0,9796(s8)
    4c6c:	240200ba 	li	v0,186
    4c70:	afc22648 	sw	v0,9800(s8)
    4c74:	24020971 	li	v0,2417
    4c78:	afc2264c 	sw	v0,9804(s8)
    4c7c:	24021b8f 	li	v0,7055
    4c80:	afc22650 	sw	v0,9808(s8)
    4c84:	240212ab 	li	v0,4779
    4c88:	afc22654 	sw	v0,9812(s8)
    4c8c:	2402124b 	li	v0,4683
    4c90:	afc22658 	sw	v0,9816(s8)
    4c94:	24022313 	li	v0,8979
    4c98:	afc2265c 	sw	v0,9820(s8)
    4c9c:	240211ed 	li	v0,4589
    4ca0:	afc22660 	sw	v0,9824(s8)
    4ca4:	240200ed 	li	v0,237
    4ca8:	afc22664 	sw	v0,9828(s8)
    4cac:	24021bb1 	li	v0,7089
    4cb0:	afc22668 	sw	v0,9832(s8)
    4cb4:	2402147f 	li	v0,5247
    4cb8:	afc2266c 	sw	v0,9836(s8)
    4cbc:	240212f5 	li	v0,4853
    4cc0:	afc22670 	sw	v0,9840(s8)
    4cc4:	24021383 	li	v0,4995
    4cc8:	afc22674 	sw	v0,9844(s8)
    4ccc:	24020370 	li	v0,880
    4cd0:	afc22678 	sw	v0,9848(s8)
    4cd4:	240211ac 	li	v0,4524
    4cd8:	afc2267c 	sw	v0,9852(s8)
    4cdc:	24021073 	li	v0,4211
    4ce0:	afc22680 	sw	v0,9856(s8)
    4ce4:	2402270f 	li	v0,9999
    4ce8:	afc22684 	sw	v0,9860(s8)
    4cec:	24022250 	li	v0,8784
    4cf0:	afc22688 	sw	v0,9864(s8)
    4cf4:	240202c7 	li	v0,711
    4cf8:	afc2268c 	sw	v0,9868(s8)
    4cfc:	2402045a 	li	v0,1114
    4d00:	afc22690 	sw	v0,9872(s8)
    4d04:	24020283 	li	v0,643
    4d08:	afc22694 	sw	v0,9876(s8)
    4d0c:	240214ce 	li	v0,5326
    4d10:	afc22698 	sw	v0,9880(s8)
    4d14:	24022250 	li	v0,8784
    4d18:	afc2269c 	sw	v0,9884(s8)
    4d1c:	24020412 	li	v0,1042
    4d20:	afc226a0 	sw	v0,9888(s8)
    4d24:	240219e8 	li	v0,6632
    4d28:	afc226a4 	sw	v0,9892(s8)
    4d2c:	240213f3 	li	v0,5107
    4d30:	afc226a8 	sw	v0,9896(s8)
    4d34:	24021000 	li	v0,4096
    4d38:	afc226ac 	sw	v0,9900(s8)
    4d3c:	240206e1 	li	v0,1761
    4d40:	afc226b0 	sw	v0,9904(s8)
    4d44:	24021c32 	li	v0,7218
    4d48:	afc226b4 	sw	v0,9908(s8)
    4d4c:	24021081 	li	v0,4225
    4d50:	afc226b8 	sw	v0,9912(s8)
    4d54:	24020d71 	li	v0,3441
    4d58:	afc226bc 	sw	v0,9916(s8)
    4d5c:	24021c3f 	li	v0,7231
    4d60:	afc226c0 	sw	v0,9920(s8)
    4d64:	240202fb 	li	v0,763
    4d68:	afc226c4 	sw	v0,9924(s8)
    4d6c:	240208a2 	li	v0,2210
    4d70:	afc226c8 	sw	v0,9928(s8)
    4d74:	240210be 	li	v0,4286
    4d78:	afc226cc 	sw	v0,9932(s8)
    4d7c:	24020766 	li	v0,1894
    4d80:	afc226d0 	sw	v0,9936(s8)
    4d84:	24021aee 	li	v0,6894
    4d88:	afc226d4 	sw	v0,9940(s8)
    4d8c:	24022591 	li	v0,9617
    4d90:	afc226d8 	sw	v0,9944(s8)
    4d94:	24020b13 	li	v0,2835
    4d98:	afc226dc 	sw	v0,9948(s8)
    4d9c:	24020d9b 	li	v0,3483
    4da0:	afc226e0 	sw	v0,9952(s8)
    4da4:	24020bf2 	li	v0,3058
    4da8:	afc226e4 	sw	v0,9956(s8)
    4dac:	24021f92 	li	v0,8082
    4db0:	afc226e8 	sw	v0,9960(s8)
    4db4:	24022091 	li	v0,8337
    4db8:	afc226ec 	sw	v0,9964(s8)
    4dbc:	24021f75 	li	v0,8053
    4dc0:	afc226f0 	sw	v0,9968(s8)
    4dc4:	240214c3 	li	v0,5315
    4dc8:	afc226f4 	sw	v0,9972(s8)
    4dcc:	240223fd 	li	v0,9213
    4dd0:	afc226f8 	sw	v0,9976(s8)
    4dd4:	240221a9 	li	v0,8617
    4dd8:	afc226fc 	sw	v0,9980(s8)
    4ddc:	240214c2 	li	v0,5314
    4de0:	afc22700 	sw	v0,9984(s8)
    4de4:	24021f3e 	li	v0,7998
    4de8:	afc22704 	sw	v0,9988(s8)
    4dec:	24021630 	li	v0,5680
    4df0:	afc22708 	sw	v0,9992(s8)
    4df4:	24020adc 	li	v0,2780
    4df8:	afc2270c 	sw	v0,9996(s8)
    4dfc:	240221c1 	li	v0,8641
    4e00:	afc22710 	sw	v0,10000(s8)
    4e04:	240203ee 	li	v0,1006
    4e08:	afc22714 	sw	v0,10004(s8)
    4e0c:	2402061c 	li	v0,1564
    4e10:	afc22718 	sw	v0,10008(s8)
    4e14:	24021793 	li	v0,6035
    4e18:	afc2271c 	sw	v0,10012(s8)
    4e1c:	24021dd6 	li	v0,7638
    4e20:	afc22720 	sw	v0,10016(s8)
    4e24:	24020bcf 	li	v0,3023
    4e28:	afc22724 	sw	v0,10020(s8)
    4e2c:	24020083 	li	v0,131
    4e30:	afc22728 	sw	v0,10024(s8)
    4e34:	24021678 	li	v0,5752
    4e38:	afc2272c 	sw	v0,10028(s8)
    4e3c:	240200f2 	li	v0,242
    4e40:	afc22730 	sw	v0,10032(s8)
    4e44:	240202c5 	li	v0,709
    4e48:	afc22734 	sw	v0,10036(s8)
    4e4c:	240215a9 	li	v0,5545
    4e50:	afc22738 	sw	v0,10040(s8)
    4e54:	24020ef1 	li	v0,3825
    4e58:	afc2273c 	sw	v0,10044(s8)
    4e5c:	24021e90 	li	v0,7824
    4e60:	afc22740 	sw	v0,10048(s8)
    4e64:	24021e4c 	li	v0,7756
    4e68:	afc22744 	sw	v0,10052(s8)
    4e6c:	2402116f 	li	v0,4463
    4e70:	afc22748 	sw	v0,10056(s8)
    4e74:	240217b7 	li	v0,6071
    4e78:	afc2274c 	sw	v0,10060(s8)
    4e7c:	240203ea 	li	v0,1002
    4e80:	afc22750 	sw	v0,10064(s8)
    4e84:	24020ff0 	li	v0,4080
    4e88:	afc22754 	sw	v0,10068(s8)
    4e8c:	240222ca 	li	v0,8906
    4e90:	afc22758 	sw	v0,10072(s8)
    4e94:	24021185 	li	v0,4485
    4e98:	afc2275c 	sw	v0,10076(s8)
    4e9c:	24020da3 	li	v0,3491
    4ea0:	afc22760 	sw	v0,10080(s8)
    4ea4:	24021b4d 	li	v0,6989
    4ea8:	afc22764 	sw	v0,10084(s8)
    4eac:	240223d6 	li	v0,9174
    4eb0:	afc22768 	sw	v0,10088(s8)
    4eb4:	24020608 	li	v0,1544
    4eb8:	afc2276c 	sw	v0,10092(s8)
    4ebc:	240221d0 	li	v0,8656
    4ec0:	afc22770 	sw	v0,10096(s8)
    4ec4:	240220c4 	li	v0,8388
    4ec8:	afc22774 	sw	v0,10100(s8)
    4ecc:	240200a1 	li	v0,161
    4ed0:	afc22778 	sw	v0,10104(s8)
    4ed4:	24020f82 	li	v0,3970
    4ed8:	afc2277c 	sw	v0,10108(s8)
    4edc:	24020ab2 	li	v0,2738
    4ee0:	afc22780 	sw	v0,10112(s8)
    4ee4:	240216d1 	li	v0,5841
    4ee8:	afc22784 	sw	v0,10116(s8)
    4eec:	24020c1e 	li	v0,3102
    4ef0:	afc22788 	sw	v0,10120(s8)
    4ef4:	24020563 	li	v0,1379
    4ef8:	afc2278c 	sw	v0,10124(s8)
    4efc:	24021ac0 	li	v0,6848
    4f00:	afc22790 	sw	v0,10128(s8)
    4f04:	240203fa 	li	v0,1018
    4f08:	afc22794 	sw	v0,10132(s8)
    4f0c:	24020eb6 	li	v0,3766
    4f10:	afc22798 	sw	v0,10136(s8)
    4f14:	24020346 	li	v0,838
    4f18:	afc2279c 	sw	v0,10140(s8)
    4f1c:	24020fca 	li	v0,4042
    4f20:	afc227a0 	sw	v0,10144(s8)
    4f24:	240200fa 	li	v0,250
    4f28:	afc227a4 	sw	v0,10148(s8)
    4f2c:	24020b7e 	li	v0,2942
    4f30:	afc227a8 	sw	v0,10152(s8)
    4f34:	240210bc 	li	v0,4284
    4f38:	afc227ac 	sw	v0,10156(s8)
    4f3c:	240203bf 	li	v0,959
    4f40:	afc227b0 	sw	v0,10160(s8)
    4f44:	24022128 	li	v0,8488
    4f48:	afc227b4 	sw	v0,10164(s8)
    4f4c:	2402116d 	li	v0,4461
    4f50:	afc227b8 	sw	v0,10168(s8)
    4f54:	2402140f 	li	v0,5135
    4f58:	afc227bc 	sw	v0,10172(s8)
    4f5c:	24020a24 	li	v0,2596
    4f60:	afc227c0 	sw	v0,10176(s8)
    4f64:	240222dc 	li	v0,8924
    4f68:	afc227c4 	sw	v0,10180(s8)
    4f6c:	240204b6 	li	v0,1206
    4f70:	afc227c8 	sw	v0,10184(s8)
    4f74:	24020e0e 	li	v0,3598
    4f78:	afc227cc 	sw	v0,10188(s8)
    4f7c:	2402248c 	li	v0,9356
    4f80:	afc227d0 	sw	v0,10192(s8)
    4f84:	24020071 	li	v0,113
    4f88:	afc227d4 	sw	v0,10196(s8)
    4f8c:	24021153 	li	v0,4435
    4f90:	afc227d8 	sw	v0,10200(s8)
    4f94:	24020b1f 	li	v0,2847
    4f98:	afc227dc 	sw	v0,10204(s8)
    4f9c:	24020d7e 	li	v0,3454
    4fa0:	afc227e0 	sw	v0,10208(s8)
    4fa4:	240226ea 	li	v0,9962
    4fa8:	afc227e4 	sw	v0,10212(s8)
    4fac:	240202e8 	li	v0,744
    4fb0:	afc227e8 	sw	v0,10216(s8)
    4fb4:	2402083e 	li	v0,2110
    4fb8:	afc227ec 	sw	v0,10220(s8)
    4fbc:	2402125e 	li	v0,4702
    4fc0:	afc227f0 	sw	v0,10224(s8)
    4fc4:	24021c59 	li	v0,7257
    4fc8:	afc227f4 	sw	v0,10228(s8)
    4fcc:	24020980 	li	v0,2432
    4fd0:	afc227f8 	sw	v0,10232(s8)
    4fd4:	24021d10 	li	v0,7440
    4fd8:	afc227fc 	sw	v0,10236(s8)
    4fdc:	240224eb 	li	v0,9451
    4fe0:	afc22800 	sw	v0,10240(s8)
    4fe4:	2402075e 	li	v0,1886
    4fe8:	afc22804 	sw	v0,10244(s8)
    4fec:	24021433 	li	v0,5171
    4ff0:	afc22808 	sw	v0,10248(s8)
    4ff4:	2402189b 	li	v0,6299
    4ff8:	afc2280c 	sw	v0,10252(s8)
    4ffc:	24020b58 	li	v0,2904
    5000:	afc22810 	sw	v0,10256(s8)
    5004:	240214a9 	li	v0,5289
    5008:	afc22814 	sw	v0,10260(s8)
    500c:	24020da1 	li	v0,3489
    5010:	afc22818 	sw	v0,10264(s8)
    5014:	24021b22 	li	v0,6946
    5018:	afc2281c 	sw	v0,10268(s8)
    501c:	240215a3 	li	v0,5539
    5020:	afc22820 	sw	v0,10272(s8)
    5024:	24020ae0 	li	v0,2784
    5028:	afc22824 	sw	v0,10276(s8)
    502c:	24021d9e 	li	v0,7582
    5030:	afc22828 	sw	v0,10280(s8)
    5034:	24020b22 	li	v0,2850
    5038:	afc2282c 	sw	v0,10284(s8)
    503c:	240204f8 	li	v0,1272
    5040:	afc22830 	sw	v0,10288(s8)
    5044:	240207fb 	li	v0,2043
    5048:	afc22834 	sw	v0,10292(s8)
    504c:	24021f32 	li	v0,7986
    5050:	afc22838 	sw	v0,10296(s8)
    5054:	24020f1c 	li	v0,3868
    5058:	afc2283c 	sw	v0,10300(s8)
    505c:	24021c97 	li	v0,7319
    5060:	afc22840 	sw	v0,10304(s8)
    5064:	240223e8 	li	v0,9192
    5068:	afc22844 	sw	v0,10308(s8)
    506c:	24020eea 	li	v0,3818
    5070:	afc22848 	sw	v0,10312(s8)
    5074:	24021a14 	li	v0,6676
    5078:	afc2284c 	sw	v0,10316(s8)
    507c:	24021619 	li	v0,5657
    5080:	afc22850 	sw	v0,10320(s8)
    5084:	2402203d 	li	v0,8253
    5088:	afc22854 	sw	v0,10324(s8)
    508c:	240216f3 	li	v0,5875
    5090:	afc22858 	sw	v0,10328(s8)
    5094:	24021557 	li	v0,5463
    5098:	afc2285c 	sw	v0,10332(s8)
    509c:	24022017 	li	v0,8215
    50a0:	afc22860 	sw	v0,10336(s8)
    50a4:	240219db 	li	v0,6619
    50a8:	afc22864 	sw	v0,10340(s8)
    50ac:	24020f55 	li	v0,3925
    50b0:	afc22868 	sw	v0,10344(s8)
    50b4:	24022435 	li	v0,9269
    50b8:	afc2286c 	sw	v0,10348(s8)
    50bc:	24020f25 	li	v0,3877
    50c0:	afc22870 	sw	v0,10352(s8)
    50c4:	24020a95 	li	v0,2709
    50c8:	afc22874 	sw	v0,10356(s8)
    50cc:	24021a35 	li	v0,6709
    50d0:	afc22878 	sw	v0,10360(s8)
    50d4:	240225d0 	li	v0,9680
    50d8:	afc2287c 	sw	v0,10364(s8)
    50dc:	240211f3 	li	v0,4595
    50e0:	afc22880 	sw	v0,10368(s8)
    50e4:	24022028 	li	v0,8232
    50e8:	afc22884 	sw	v0,10372(s8)
    50ec:	2402091b 	li	v0,2331
    50f0:	afc22888 	sw	v0,10376(s8)
    50f4:	24021d4c 	li	v0,7500
    50f8:	afc2288c 	sw	v0,10380(s8)
    50fc:	24020dc2 	li	v0,3522
    5100:	afc22890 	sw	v0,10384(s8)
    5104:	240216bc 	li	v0,5820
    5108:	afc22894 	sw	v0,10388(s8)
    510c:	2402115e 	li	v0,4446
    5110:	afc22898 	sw	v0,10392(s8)
    5114:	24021525 	li	v0,5413
    5118:	afc2289c 	sw	v0,10396(s8)
    511c:	2402135c 	li	v0,4956
    5120:	afc228a0 	sw	v0,10400(s8)
    5124:	240207ed 	li	v0,2029
    5128:	afc228a4 	sw	v0,10404(s8)
    512c:	24022048 	li	v0,8264
    5130:	afc228a8 	sw	v0,10408(s8)
    5134:	24021854 	li	v0,6228
    5138:	afc228ac 	sw	v0,10412(s8)
    513c:	240201a8 	li	v0,424
    5140:	afc228b0 	sw	v0,10416(s8)
    5144:	2402186a 	li	v0,6250
    5148:	afc228b4 	sw	v0,10420(s8)
    514c:	24021930 	li	v0,6448
    5150:	afc228b8 	sw	v0,10424(s8)
    5154:	24021e40 	li	v0,7744
    5158:	afc228bc 	sw	v0,10428(s8)
    515c:	24020702 	li	v0,1794
    5160:	afc228c0 	sw	v0,10432(s8)
    5164:	240219da 	li	v0,6618
    5168:	afc228c4 	sw	v0,10436(s8)
    516c:	24020304 	li	v0,772
    5170:	afc228c8 	sw	v0,10440(s8)
    5174:	24020edc 	li	v0,3804
    5178:	afc228cc 	sw	v0,10444(s8)
    517c:	24021308 	li	v0,4872
    5180:	afc228d0 	sw	v0,10448(s8)
    5184:	240219f7 	li	v0,6647
    5188:	afc228d4 	sw	v0,10452(s8)
    518c:	24022433 	li	v0,9267
    5190:	afc228d8 	sw	v0,10456(s8)
    5194:	240224df 	li	v0,9439
    5198:	afc228dc 	sw	v0,10460(s8)
    519c:	24022593 	li	v0,9619
    51a0:	afc228e0 	sw	v0,10464(s8)
    51a4:	24020c79 	li	v0,3193
    51a8:	afc228e4 	sw	v0,10468(s8)
    51ac:	24022205 	li	v0,8709
    51b0:	afc228e8 	sw	v0,10472(s8)
    51b4:	24022678 	li	v0,9848
    51b8:	afc228ec 	sw	v0,10476(s8)
    51bc:	240208ce 	li	v0,2254
    51c0:	afc228f0 	sw	v0,10480(s8)
    51c4:	240206ea 	li	v0,1770
    51c8:	afc228f4 	sw	v0,10484(s8)
    51cc:	24022538 	li	v0,9528
    51d0:	afc228f8 	sw	v0,10488(s8)
    51d4:	24021ac2 	li	v0,6850
    51d8:	afc228fc 	sw	v0,10492(s8)
    51dc:	240218d3 	li	v0,6355
    51e0:	afc22900 	sw	v0,10496(s8)
    51e4:	24020743 	li	v0,1859
    51e8:	afc22904 	sw	v0,10500(s8)
    51ec:	240210fe 	li	v0,4350
    51f0:	afc22908 	sw	v0,10504(s8)
    51f4:	24021855 	li	v0,6229
    51f8:	afc2290c 	sw	v0,10508(s8)
    51fc:	24020fbf 	li	v0,4031
    5200:	afc22910 	sw	v0,10512(s8)
    5204:	2402141c 	li	v0,5148
    5208:	afc22914 	sw	v0,10516(s8)
    520c:	2402066a 	li	v0,1642
    5210:	afc22918 	sw	v0,10520(s8)
    5214:	2402231c 	li	v0,8988
    5218:	afc2291c 	sw	v0,10524(s8)
    521c:	24021c09 	li	v0,7177
    5220:	afc22920 	sw	v0,10528(s8)
    5224:	240226b2 	li	v0,9906
    5228:	afc22924 	sw	v0,10532(s8)
    522c:	24020620 	li	v0,1568
    5230:	afc22928 	sw	v0,10536(s8)
    5234:	24020f72 	li	v0,3954
    5238:	afc2292c 	sw	v0,10540(s8)
    523c:	240209cc 	li	v0,2508
    5240:	afc22930 	sw	v0,10544(s8)
    5244:	24021111 	li	v0,4369
    5248:	afc22934 	sw	v0,10548(s8)
    524c:	240206a2 	li	v0,1698
    5250:	afc22938 	sw	v0,10552(s8)
    5254:	240210cf 	li	v0,4303
    5258:	afc2293c 	sw	v0,10556(s8)
    525c:	240203db 	li	v0,987
    5260:	afc22940 	sw	v0,10560(s8)
    5264:	240209a6 	li	v0,2470
    5268:	afc22944 	sw	v0,10564(s8)
    526c:	24021fab 	li	v0,8107
    5270:	afc22948 	sw	v0,10568(s8)
    5274:	240208a3 	li	v0,2211
    5278:	afc2294c 	sw	v0,10572(s8)
    527c:	2402155d 	li	v0,5469
    5280:	afc22950 	sw	v0,10576(s8)
    5284:	24020e8e 	li	v0,3726
    5288:	afc22954 	sw	v0,10580(s8)
    528c:	24021f43 	li	v0,8003
    5290:	afc22958 	sw	v0,10584(s8)
    5294:	240205a0 	li	v0,1440
    5298:	afc2295c 	sw	v0,10588(s8)
    529c:	24020cc7 	li	v0,3271
    52a0:	afc22960 	sw	v0,10592(s8)
    52a4:	24020bf8 	li	v0,3064
    52a8:	afc22964 	sw	v0,10596(s8)
    52ac:	24020508 	li	v0,1288
    52b0:	afc22968 	sw	v0,10600(s8)
    52b4:	24021596 	li	v0,5526
    52b8:	afc2296c 	sw	v0,10604(s8)
    52bc:	240204a2 	li	v0,1186
    52c0:	afc22970 	sw	v0,10608(s8)
    52c4:	24020330 	li	v0,816
    52c8:	afc22974 	sw	v0,10612(s8)
    52cc:	24020948 	li	v0,2376
    52d0:	afc22978 	sw	v0,10616(s8)
    52d4:	24021d75 	li	v0,7541
    52d8:	afc2297c 	sw	v0,10620(s8)
    52dc:	24022343 	li	v0,9027
    52e0:	afc22980 	sw	v0,10624(s8)
    52e4:	24020c06 	li	v0,3078
    52e8:	afc22984 	sw	v0,10628(s8)
    52ec:	2402007a 	li	v0,122
    52f0:	afc22988 	sw	v0,10632(s8)
    52f4:	24020bf3 	li	v0,3059
    52f8:	afc2298c 	sw	v0,10636(s8)
    52fc:	24022022 	li	v0,8226
    5300:	afc22990 	sw	v0,10640(s8)
    5304:	240206e5 	li	v0,1765
    5308:	afc22994 	sw	v0,10644(s8)
    530c:	240220cf 	li	v0,8399
    5310:	afc22998 	sw	v0,10648(s8)
    5314:	2402151c 	li	v0,5404
    5318:	afc2299c 	sw	v0,10652(s8)
    531c:	24021f57 	li	v0,8023
    5320:	afc229a0 	sw	v0,10656(s8)
    5324:	240226ef 	li	v0,9967
    5328:	afc229a4 	sw	v0,10660(s8)
    532c:	2402248e 	li	v0,9358
    5330:	afc229a8 	sw	v0,10664(s8)
    5334:	24020214 	li	v0,532
    5338:	afc229ac 	sw	v0,10668(s8)
    533c:	240202b0 	li	v0,688
    5340:	afc229b0 	sw	v0,10672(s8)
    5344:	24021cf0 	li	v0,7408
    5348:	afc229b4 	sw	v0,10676(s8)
    534c:	240204a3 	li	v0,1187
    5350:	afc229b8 	sw	v0,10680(s8)
    5354:	2402068c 	li	v0,1676
    5358:	afc229bc 	sw	v0,10684(s8)
    535c:	24021856 	li	v0,6230
    5360:	afc229c0 	sw	v0,10688(s8)
    5364:	2402244e 	li	v0,9294
    5368:	afc229c4 	sw	v0,10692(s8)
    536c:	240200ef 	li	v0,239
    5370:	afc229c8 	sw	v0,10696(s8)
    5374:	24021f73 	li	v0,8051
    5378:	afc229cc 	sw	v0,10700(s8)
    537c:	2402249c 	li	v0,9372
    5380:	afc229d0 	sw	v0,10704(s8)
    5384:	24022032 	li	v0,8242
    5388:	afc229d4 	sw	v0,10708(s8)
    538c:	24022514 	li	v0,9492
    5390:	afc229d8 	sw	v0,10712(s8)
    5394:	24020a54 	li	v0,2644
    5398:	afc229dc 	sw	v0,10716(s8)
    539c:	2402051a 	li	v0,1306
    53a0:	afc229e0 	sw	v0,10720(s8)
    53a4:	2402030c 	li	v0,780
    53a8:	afc229e4 	sw	v0,10724(s8)
    53ac:	240211aa 	li	v0,4522
    53b0:	afc229e8 	sw	v0,10728(s8)
    53b4:	240209bd 	li	v0,2493
    53b8:	afc229ec 	sw	v0,10732(s8)
    53bc:	24021f0d 	li	v0,7949
    53c0:	afc229f0 	sw	v0,10736(s8)
    53c4:	24021af2 	li	v0,6898
    53c8:	afc229f4 	sw	v0,10740(s8)
    53cc:	240218f2 	li	v0,6386
    53d0:	afc229f8 	sw	v0,10744(s8)
    53d4:	24020d00 	li	v0,3328
    53d8:	afc229fc 	sw	v0,10748(s8)
    53dc:	240226f8 	li	v0,9976
    53e0:	afc22a00 	sw	v0,10752(s8)
    53e4:	2402196d 	li	v0,6509
    53e8:	afc22a04 	sw	v0,10756(s8)
    53ec:	240218f3 	li	v0,6387
    53f0:	afc22a08 	sw	v0,10760(s8)
    53f4:	2402200a 	li	v0,8202
    53f8:	afc22a0c 	sw	v0,10764(s8)
    53fc:	24021212 	li	v0,4626
    5400:	afc22a10 	sw	v0,10768(s8)
    5404:	24020472 	li	v0,1138
    5408:	afc22a14 	sw	v0,10772(s8)
    540c:	240226e6 	li	v0,9958
    5410:	afc22a18 	sw	v0,10776(s8)
    5414:	24020a59 	li	v0,2649
    5418:	afc22a1c 	sw	v0,10780(s8)
    541c:	24021d22 	li	v0,7458
    5420:	afc22a20 	sw	v0,10784(s8)
    5424:	24021624 	li	v0,5668
    5428:	afc22a24 	sw	v0,10788(s8)
    542c:	24020c6d 	li	v0,3181
    5430:	afc22a28 	sw	v0,10792(s8)
    5434:	24021fd2 	li	v0,8146
    5438:	afc22a2c 	sw	v0,10796(s8)
    543c:	240224d4 	li	v0,9428
    5440:	afc22a30 	sw	v0,10800(s8)
    5444:	240202d0 	li	v0,720
    5448:	afc22a34 	sw	v0,10804(s8)
    544c:	2402181e 	li	v0,6174
    5450:	afc22a38 	sw	v0,10808(s8)
    5454:	2402161a 	li	v0,5658
    5458:	afc22a3c 	sw	v0,10812(s8)
    545c:	2402000e 	li	v0,14
    5460:	afc22a40 	sw	v0,10816(s8)
    5464:	2402190e 	li	v0,6414
    5468:	afc22a44 	sw	v0,10820(s8)
    546c:	2402003e 	li	v0,62
    5470:	afc22a48 	sw	v0,10824(s8)
    5474:	2402166b 	li	v0,5739
    5478:	afc22a4c 	sw	v0,10828(s8)
    547c:	24021230 	li	v0,4656
    5480:	afc22a50 	sw	v0,10832(s8)
    5484:	24022552 	li	v0,9554
    5488:	afc22a54 	sw	v0,10836(s8)
    548c:	2402127f 	li	v0,4735
    5490:	afc22a58 	sw	v0,10840(s8)
    5494:	2402090b 	li	v0,2315
    5498:	afc22a5c 	sw	v0,10844(s8)
    549c:	2402014e 	li	v0,334
    54a0:	afc22a60 	sw	v0,10848(s8)
    54a4:	24022429 	li	v0,9257
    54a8:	afc22a64 	sw	v0,10852(s8)
    54ac:	24020488 	li	v0,1160
    54b0:	afc22a68 	sw	v0,10856(s8)
    54b4:	2402121b 	li	v0,4635
    54b8:	afc22a6c 	sw	v0,10860(s8)
    54bc:	240209cb 	li	v0,2507
    54c0:	afc22a70 	sw	v0,10864(s8)
    54c4:	24021d7a 	li	v0,7546
    54c8:	afc22a74 	sw	v0,10868(s8)
    54cc:	24021f1c 	li	v0,7964
    54d0:	afc22a78 	sw	v0,10872(s8)
    54d4:	240209b3 	li	v0,2483
    54d8:	afc22a7c 	sw	v0,10876(s8)
    54dc:	24020fd7 	li	v0,4055
    54e0:	afc22a80 	sw	v0,10880(s8)
    54e4:	240202bf 	li	v0,703
    54e8:	afc22a84 	sw	v0,10884(s8)
    54ec:	24021b7d 	li	v0,7037
    54f0:	afc22a88 	sw	v0,10888(s8)
    54f4:	240213a9 	li	v0,5033
    54f8:	afc22a8c 	sw	v0,10892(s8)
    54fc:	24020732 	li	v0,1842
    5500:	afc22a90 	sw	v0,10896(s8)
    5504:	24020d14 	li	v0,3348
    5508:	afc22a94 	sw	v0,10900(s8)
    550c:	24021e03 	li	v0,7683
    5510:	afc22a98 	sw	v0,10904(s8)
    5514:	24022454 	li	v0,9300
    5518:	afc22a9c 	sw	v0,10908(s8)
    551c:	240214f8 	li	v0,5368
    5520:	afc22aa0 	sw	v0,10912(s8)
    5524:	24021c30 	li	v0,7216
    5528:	afc22aa4 	sw	v0,10916(s8)
    552c:	24021d16 	li	v0,7446
    5530:	afc22aa8 	sw	v0,10920(s8)
    5534:	2402047d 	li	v0,1149
    5538:	afc22aac 	sw	v0,10924(s8)
    553c:	24021f01 	li	v0,7937
    5540:	afc22ab0 	sw	v0,10928(s8)
    5544:	24020e25 	li	v0,3621
    5548:	afc22ab4 	sw	v0,10932(s8)
    554c:	24020c57 	li	v0,3159
    5550:	afc22ab8 	sw	v0,10936(s8)
    5554:	240210cf 	li	v0,4303
    5558:	afc22abc 	sw	v0,10940(s8)
    555c:	240218f3 	li	v0,6387
    5560:	afc22ac0 	sw	v0,10944(s8)
    5564:	24020c95 	li	v0,3221
    5568:	afc22ac4 	sw	v0,10948(s8)
    556c:	2402002a 	li	v0,42
    5570:	afc22ac8 	sw	v0,10952(s8)
    5574:	24020413 	li	v0,1043
    5578:	afc22acc 	sw	v0,10956(s8)
    557c:	24020ad7 	li	v0,2775
    5580:	afc22ad0 	sw	v0,10960(s8)
    5584:	240212a9 	li	v0,4777
    5588:	afc22ad4 	sw	v0,10964(s8)
    558c:	240225ee 	li	v0,9710
    5590:	afc22ad8 	sw	v0,10968(s8)
    5594:	240224f6 	li	v0,9462
    5598:	afc22adc 	sw	v0,10972(s8)
    559c:	24020182 	li	v0,386
    55a0:	afc22ae0 	sw	v0,10976(s8)
    55a4:	24020366 	li	v0,870
    55a8:	afc22ae4 	sw	v0,10980(s8)
    55ac:	24021001 	li	v0,4097
    55b0:	afc22ae8 	sw	v0,10984(s8)
    55b4:	24020b4d 	li	v0,2893
    55b8:	afc22aec 	sw	v0,10988(s8)
    55bc:	240220e1 	li	v0,8417
    55c0:	afc22af0 	sw	v0,10992(s8)
    55c4:	2402080d 	li	v0,2061
    55c8:	afc22af4 	sw	v0,10996(s8)
    55cc:	240206c0 	li	v0,1728
    55d0:	afc22af8 	sw	v0,11000(s8)
    55d4:	24022278 	li	v0,8824
    55d8:	afc22afc 	sw	v0,11004(s8)
    55dc:	2402239d 	li	v0,9117
    55e0:	afc22b00 	sw	v0,11008(s8)
    55e4:	2402223e 	li	v0,8766
    55e8:	afc22b04 	sw	v0,11012(s8)
    55ec:	24020f12 	li	v0,3858
    55f0:	afc22b08 	sw	v0,11016(s8)
    55f4:	240203bf 	li	v0,959
    55f8:	afc22b0c 	sw	v0,11020(s8)
    55fc:	24022112 	li	v0,8466
    5600:	afc22b10 	sw	v0,11024(s8)
    5604:	24021ed5 	li	v0,7893
    5608:	afc22b14 	sw	v0,11028(s8)
    560c:	24020103 	li	v0,259
    5610:	afc22b18 	sw	v0,11032(s8)
    5614:	240200ba 	li	v0,186
    5618:	afc22b1c 	sw	v0,11036(s8)
    561c:	240213f5 	li	v0,5109
    5620:	afc22b20 	sw	v0,11040(s8)
    5624:	24020fd9 	li	v0,4057
    5628:	afc22b24 	sw	v0,11044(s8)
    562c:	24020537 	li	v0,1335
    5630:	afc22b28 	sw	v0,11048(s8)
    5634:	24020be6 	li	v0,3046
    5638:	afc22b2c 	sw	v0,11052(s8)
    563c:	24020fbe 	li	v0,4030
    5640:	afc22b30 	sw	v0,11056(s8)
    5644:	2402118f 	li	v0,4495
    5648:	afc22b34 	sw	v0,11060(s8)
    564c:	24020e76 	li	v0,3702
    5650:	afc22b38 	sw	v0,11064(s8)
    5654:	240201a1 	li	v0,417
    5658:	afc22b3c 	sw	v0,11068(s8)
    565c:	24021e24 	li	v0,7716
    5660:	afc22b40 	sw	v0,11072(s8)
    5664:	24020060 	li	v0,96
    5668:	afc22b44 	sw	v0,11076(s8)
    566c:	24021e85 	li	v0,7813
    5670:	afc22b48 	sw	v0,11080(s8)
    5674:	240201ec 	li	v0,492
    5678:	afc22b4c 	sw	v0,11084(s8)
    567c:	2402130a 	li	v0,4874
    5680:	afc22b50 	sw	v0,11088(s8)
    5684:	24021d63 	li	v0,7523
    5688:	afc22b54 	sw	v0,11092(s8)
    568c:	240218a2 	li	v0,6306
    5690:	afc22b58 	sw	v0,11096(s8)
    5694:	2402148c 	li	v0,5260
    5698:	afc22b5c 	sw	v0,11100(s8)
    569c:	240220ca 	li	v0,8394
    56a0:	afc22b60 	sw	v0,11104(s8)
    56a4:	24020193 	li	v0,403
    56a8:	afc22b64 	sw	v0,11108(s8)
    56ac:	2402119a 	li	v0,4506
    56b0:	afc22b68 	sw	v0,11112(s8)
    56b4:	24020c5b 	li	v0,3163
    56b8:	afc22b6c 	sw	v0,11116(s8)
    56bc:	24022271 	li	v0,8817
    56c0:	afc22b70 	sw	v0,11120(s8)
    56c4:	2402185a 	li	v0,6234
    56c8:	afc22b74 	sw	v0,11124(s8)
    56cc:	24022093 	li	v0,8339
    56d0:	afc22b78 	sw	v0,11128(s8)
    56d4:	24021efe 	li	v0,7934
    56d8:	afc22b7c 	sw	v0,11132(s8)
    56dc:	24020548 	li	v0,1352
    56e0:	afc22b80 	sw	v0,11136(s8)
    56e4:	24022165 	li	v0,8549
    56e8:	afc22b84 	sw	v0,11140(s8)
    56ec:	240222bd 	li	v0,8893
    56f0:	afc22b88 	sw	v0,11144(s8)
    56f4:	2402265a 	li	v0,9818
    56f8:	afc22b8c 	sw	v0,11148(s8)
    56fc:	2402192a 	li	v0,6442
    5700:	afc22b90 	sw	v0,11152(s8)
    5704:	24021580 	li	v0,5504
    5708:	afc22b94 	sw	v0,11156(s8)
    570c:	24020005 	li	v0,5
    5710:	afc22b98 	sw	v0,11160(s8)
    5714:	24021ee0 	li	v0,7904
    5718:	afc22b9c 	sw	v0,11164(s8)
    571c:	24021719 	li	v0,5913
    5720:	afc22ba0 	sw	v0,11168(s8)
    5724:	24021e0c 	li	v0,7692
    5728:	afc22ba4 	sw	v0,11172(s8)
    572c:	24021c86 	li	v0,7302
    5730:	afc22ba8 	sw	v0,11176(s8)
    5734:	240226d8 	li	v0,9944
    5738:	afc22bac 	sw	v0,11180(s8)
    573c:	2402088b 	li	v0,2187
    5740:	afc22bb0 	sw	v0,11184(s8)
    5744:	240203ec 	li	v0,1004
    5748:	afc22bb4 	sw	v0,11188(s8)
    574c:	24020169 	li	v0,361
    5750:	afc22bb8 	sw	v0,11192(s8)
    5754:	24021870 	li	v0,6256
    5758:	afc22bbc 	sw	v0,11196(s8)
    575c:	2402044d 	li	v0,1101
    5760:	afc22bc0 	sw	v0,11200(s8)
    5764:	240211ae 	li	v0,4526
    5768:	afc22bc4 	sw	v0,11204(s8)
    576c:	24021a5c 	li	v0,6748
    5770:	afc22bc8 	sw	v0,11208(s8)
    5774:	24020917 	li	v0,2327
    5778:	afc22bcc 	sw	v0,11212(s8)
    577c:	24020802 	li	v0,2050
    5780:	afc22bd0 	sw	v0,11216(s8)
    5784:	24020bee 	li	v0,3054
    5788:	afc22bd4 	sw	v0,11220(s8)
    578c:	24020f63 	li	v0,3939
    5790:	afc22bd8 	sw	v0,11224(s8)
    5794:	24021a8c 	li	v0,6796
    5798:	afc22bdc 	sw	v0,11228(s8)
    579c:	24022651 	li	v0,9809
    57a0:	afc22be0 	sw	v0,11232(s8)
    57a4:	240220fd 	li	v0,8445
    57a8:	afc22be4 	sw	v0,11236(s8)
    57ac:	240218a7 	li	v0,6311
    57b0:	afc22be8 	sw	v0,11240(s8)
    57b4:	240221b2 	li	v0,8626
    57b8:	afc22bec 	sw	v0,11244(s8)
    57bc:	24021248 	li	v0,4680
    57c0:	afc22bf0 	sw	v0,11248(s8)
    57c4:	240203ea 	li	v0,1002
    57c8:	afc22bf4 	sw	v0,11252(s8)
    57cc:	24020b60 	li	v0,2912
    57d0:	afc22bf8 	sw	v0,11256(s8)
    57d4:	24021790 	li	v0,6032
    57d8:	afc22bfc 	sw	v0,11260(s8)
    57dc:	24022550 	li	v0,9552
    57e0:	afc22c00 	sw	v0,11264(s8)
    57e4:	24021fdd 	li	v0,8157
    57e8:	afc22c04 	sw	v0,11268(s8)
    57ec:	2402089b 	li	v0,2203
    57f0:	afc22c08 	sw	v0,11272(s8)
    57f4:	2402092a 	li	v0,2346
    57f8:	afc22c0c 	sw	v0,11276(s8)
    57fc:	24020e4d 	li	v0,3661
    5800:	afc22c10 	sw	v0,11280(s8)
    5804:	24022170 	li	v0,8560
    5808:	afc22c14 	sw	v0,11284(s8)
    580c:	240200fa 	li	v0,250
    5810:	afc22c18 	sw	v0,11288(s8)
    5814:	24021727 	li	v0,5927
    5818:	afc22c1c 	sw	v0,11292(s8)
    581c:	2402186c 	li	v0,6252
    5820:	afc22c20 	sw	v0,11296(s8)
    5824:	24021d81 	li	v0,7553
    5828:	afc22c24 	sw	v0,11300(s8)
    582c:	240216ef 	li	v0,5871
    5830:	afc22c28 	sw	v0,11304(s8)
    5834:	240220f8 	li	v0,8440
    5838:	afc22c2c 	sw	v0,11308(s8)
    583c:	2402216d 	li	v0,8557
    5840:	afc22c30 	sw	v0,11312(s8)
    5844:	24020a18 	li	v0,2584
    5848:	afc22c34 	sw	v0,11316(s8)
    584c:	24020418 	li	v0,1048
    5850:	afc22c38 	sw	v0,11320(s8)
    5854:	2402177a 	li	v0,6010
    5858:	afc22c3c 	sw	v0,11324(s8)
    585c:	24021bc7 	li	v0,7111
    5860:	afc22c40 	sw	v0,11328(s8)
    5864:	24021034 	li	v0,4148
    5868:	afc22c44 	sw	v0,11332(s8)
    586c:	24022091 	li	v0,8337
    5870:	afc22c48 	sw	v0,11336(s8)
    5874:	24021589 	li	v0,5513
    5878:	afc22c4c 	sw	v0,11340(s8)
    587c:	24020de2 	li	v0,3554
    5880:	afc22c50 	sw	v0,11344(s8)
    5884:	240208e5 	li	v0,2277
    5888:	afc22c54 	sw	v0,11348(s8)
    588c:	240221d5 	li	v0,8661
    5890:	afc22c58 	sw	v0,11352(s8)
    5894:	24020d23 	li	v0,3363
    5898:	afc22c5c 	sw	v0,11356(s8)
    589c:	24021ba2 	li	v0,7074
    58a0:	afc22c60 	sw	v0,11360(s8)
    58a4:	2402052c 	li	v0,1324
    58a8:	afc22c64 	sw	v0,11364(s8)
    58ac:	24022096 	li	v0,8342
    58b0:	afc22c68 	sw	v0,11368(s8)
    58b4:	240206da 	li	v0,1754
    58b8:	afc22c6c 	sw	v0,11372(s8)
    58bc:	24020916 	li	v0,2326
    58c0:	afc22c70 	sw	v0,11376(s8)
    58c4:	240204e6 	li	v0,1254
    58c8:	afc22c74 	sw	v0,11380(s8)
    58cc:	2402102b 	li	v0,4139
    58d0:	afc22c78 	sw	v0,11384(s8)
    58d4:	24020756 	li	v0,1878
    58d8:	afc22c7c 	sw	v0,11388(s8)
    58dc:	24021684 	li	v0,5764
    58e0:	afc22c80 	sw	v0,11392(s8)
    58e4:	240218c6 	li	v0,6342
    58e8:	afc22c84 	sw	v0,11396(s8)
    58ec:	24021081 	li	v0,4225
    58f0:	afc22c88 	sw	v0,11400(s8)
    58f4:	24021691 	li	v0,5777
    58f8:	afc22c8c 	sw	v0,11404(s8)
    58fc:	24021326 	li	v0,4902
    5900:	afc22c90 	sw	v0,11408(s8)
    5904:	2402033b 	li	v0,827
    5908:	afc22c94 	sw	v0,11412(s8)
    590c:	240206a8 	li	v0,1704
    5910:	afc22c98 	sw	v0,11416(s8)
    5914:	24020482 	li	v0,1154
    5918:	afc22c9c 	sw	v0,11420(s8)
    591c:	240220bc 	li	v0,8380
    5920:	afc22ca0 	sw	v0,11424(s8)
    5924:	24021d97 	li	v0,7575
    5928:	afc22ca4 	sw	v0,11428(s8)
    592c:	2402173a 	li	v0,5946
    5930:	afc22ca8 	sw	v0,11432(s8)
    5934:	24020cda 	li	v0,3290
    5938:	afc22cac 	sw	v0,11436(s8)
    593c:	240200a0 	li	v0,160
    5940:	afc22cb0 	sw	v0,11440(s8)
    5944:	24021b52 	li	v0,6994
    5948:	afc22cb4 	sw	v0,11444(s8)
    594c:	24022454 	li	v0,9300
    5950:	afc22cb8 	sw	v0,11448(s8)
    5954:	24020e27 	li	v0,3623
    5958:	afc22cbc 	sw	v0,11452(s8)
    595c:	24020476 	li	v0,1142
    5960:	afc22cc0 	sw	v0,11456(s8)
    5964:	24020f96 	li	v0,3990
    5968:	afc22cc4 	sw	v0,11460(s8)
    596c:	24021570 	li	v0,5488
    5970:	afc22cc8 	sw	v0,11464(s8)
    5974:	24021258 	li	v0,4696
    5978:	afc22ccc 	sw	v0,11468(s8)
    597c:	24020a3b 	li	v0,2619
    5980:	afc22cd0 	sw	v0,11472(s8)
    5984:	24021035 	li	v0,4149
    5988:	afc22cd4 	sw	v0,11476(s8)
    598c:	2402113c 	li	v0,4412
    5990:	afc22cd8 	sw	v0,11480(s8)
    5994:	240225dd 	li	v0,9693
    5998:	afc22cdc 	sw	v0,11484(s8)
    599c:	24020721 	li	v0,1825
    59a0:	afc22ce0 	sw	v0,11488(s8)
    59a4:	24020ac2 	li	v0,2754
    59a8:	afc22ce4 	sw	v0,11492(s8)
    59ac:	240205a8 	li	v0,1448
    59b0:	afc22ce8 	sw	v0,11496(s8)
    59b4:	24021037 	li	v0,4151
    59b8:	afc22cec 	sw	v0,11500(s8)
    59bc:	24020168 	li	v0,360
    59c0:	afc22cf0 	sw	v0,11504(s8)
    59c4:	240215d3 	li	v0,5587
    59c8:	afc22cf4 	sw	v0,11508(s8)
    59cc:	2402094e 	li	v0,2382
    59d0:	afc22cf8 	sw	v0,11512(s8)
    59d4:	240217ec 	li	v0,6124
    59d8:	afc22cfc 	sw	v0,11516(s8)
    59dc:	24020789 	li	v0,1929
    59e0:	afc22d00 	sw	v0,11520(s8)
    59e4:	24020b8f 	li	v0,2959
    59e8:	afc22d04 	sw	v0,11524(s8)
    59ec:	2402076e 	li	v0,1902
    59f0:	afc22d08 	sw	v0,11528(s8)
    59f4:	24020c6f 	li	v0,3183
    59f8:	afc22d0c 	sw	v0,11532(s8)
    59fc:	24020eca 	li	v0,3786
    5a00:	afc22d10 	sw	v0,11536(s8)
    5a04:	24020e16 	li	v0,3606
    5a08:	afc22d14 	sw	v0,11540(s8)
    5a0c:	240210f1 	li	v0,4337
    5a10:	afc22d18 	sw	v0,11544(s8)
    5a14:	24020877 	li	v0,2167
    5a18:	afc22d1c 	sw	v0,11548(s8)
    5a1c:	24021d6e 	li	v0,7534
    5a20:	afc22d20 	sw	v0,11552(s8)
    5a24:	240219ec 	li	v0,6636
    5a28:	afc22d24 	sw	v0,11556(s8)
    5a2c:	24020711 	li	v0,1809
    5a30:	afc22d28 	sw	v0,11560(s8)
    5a34:	24020fce 	li	v0,4046
    5a38:	afc22d2c 	sw	v0,11564(s8)
    5a3c:	24020e2e 	li	v0,3630
    5a40:	afc22d30 	sw	v0,11568(s8)
    5a44:	24020455 	li	v0,1109
    5a48:	afc22d34 	sw	v0,11572(s8)
    5a4c:	24021df5 	li	v0,7669
    5a50:	afc22d38 	sw	v0,11576(s8)
    5a54:	24020465 	li	v0,1125
    5a58:	afc22d3c 	sw	v0,11580(s8)
    5a5c:	240205ab 	li	v0,1451
    5a60:	afc22d40 	sw	v0,11584(s8)
    5a64:	24020c55 	li	v0,3157
    5a68:	afc22d44 	sw	v0,11588(s8)
    5a6c:	2402087d 	li	v0,2173
    5a70:	afc22d48 	sw	v0,11592(s8)
    5a74:	24020fe6 	li	v0,4070
    5a78:	afc22d4c 	sw	v0,11596(s8)
    5a7c:	24020e4a 	li	v0,3658
    5a80:	afc22d50 	sw	v0,11600(s8)
    5a84:	240219b9 	li	v0,6585
    5a88:	afc22d54 	sw	v0,11604(s8)
    5a8c:	24020eb4 	li	v0,3764
    5a90:	afc22d58 	sw	v0,11608(s8)
    5a94:	2402156b 	li	v0,5483
    5a98:	afc22d5c 	sw	v0,11612(s8)
    5a9c:	2402247b 	li	v0,9339
    5aa0:	afc22d60 	sw	v0,11616(s8)
    5aa4:	2402061c 	li	v0,1564
    5aa8:	afc22d64 	sw	v0,11620(s8)
    5aac:	24021762 	li	v0,5986
    5ab0:	afc22d68 	sw	v0,11624(s8)
    5ab4:	240217a4 	li	v0,6052
    5ab8:	afc22d6c 	sw	v0,11628(s8)
    5abc:	24020daf 	li	v0,3503
    5ac0:	afc22d70 	sw	v0,11632(s8)
    5ac4:	240220b0 	li	v0,8368
    5ac8:	afc22d74 	sw	v0,11636(s8)
    5acc:	24020880 	li	v0,2176
    5ad0:	afc22d78 	sw	v0,11640(s8)
    5ad4:	24021538 	li	v0,5432
    5ad8:	afc22d7c 	sw	v0,11644(s8)
    5adc:	2402052f 	li	v0,1327
    5ae0:	afc22d80 	sw	v0,11648(s8)
    5ae4:	240201ae 	li	v0,430
    5ae8:	afc22d84 	sw	v0,11652(s8)
    5aec:	24021367 	li	v0,4967
    5af0:	afc22d88 	sw	v0,11656(s8)
    5af4:	240205ba 	li	v0,1466
    5af8:	afc22d8c 	sw	v0,11660(s8)
    5afc:	24020fc5 	li	v0,4037
    5b00:	afc22d90 	sw	v0,11664(s8)
    5b04:	24022458 	li	v0,9304
    5b08:	afc22d94 	sw	v0,11668(s8)
    5b0c:	24020e31 	li	v0,3633
    5b10:	afc22d98 	sw	v0,11672(s8)
    5b14:	24020623 	li	v0,1571
    5b18:	afc22d9c 	sw	v0,11676(s8)
    5b1c:	240208f4 	li	v0,2292
    5b20:	afc22da0 	sw	v0,11680(s8)
    5b24:	24020702 	li	v0,1794
    5b28:	afc22da4 	sw	v0,11684(s8)
    5b2c:	240215f1 	li	v0,5617
    5b30:	afc22da8 	sw	v0,11688(s8)
    5b34:	240208e3 	li	v0,2275
    5b38:	afc22dac 	sw	v0,11692(s8)
    5b3c:	24022427 	li	v0,9255
    5b40:	afc22db0 	sw	v0,11696(s8)
    5b44:	240225a6 	li	v0,9638
    5b48:	afc22db4 	sw	v0,11700(s8)
    5b4c:	24020d48 	li	v0,3400
    5b50:	afc22db8 	sw	v0,11704(s8)
    5b54:	240202c3 	li	v0,707
    5b58:	afc22dbc 	sw	v0,11708(s8)
    5b5c:	240223bb 	li	v0,9147
    5b60:	afc22dc0 	sw	v0,11712(s8)
    5b64:	240215c5 	li	v0,5573
    5b68:	afc22dc4 	sw	v0,11716(s8)
    5b6c:	240212a9 	li	v0,4777
    5b70:	afc22dc8 	sw	v0,11720(s8)
    5b74:	240223c5 	li	v0,9157
    5b78:	afc22dcc 	sw	v0,11724(s8)
    5b7c:	2402086f 	li	v0,2159
    5b80:	afc22dd0 	sw	v0,11728(s8)
    5b84:	2402131d 	li	v0,4893
    5b88:	afc22dd4 	sw	v0,11732(s8)
    5b8c:	240203e0 	li	v0,992
    5b90:	afc22dd8 	sw	v0,11736(s8)
    5b94:	24021eaa 	li	v0,7850
    5b98:	afc22ddc 	sw	v0,11740(s8)
    5b9c:	24021939 	li	v0,6457
    5ba0:	afc22de0 	sw	v0,11744(s8)
    5ba4:	24021b42 	li	v0,6978
    5ba8:	afc22de4 	sw	v0,11748(s8)
    5bac:	24020f3e 	li	v0,3902
    5bb0:	afc22de8 	sw	v0,11752(s8)
    5bb4:	240226e8 	li	v0,9960
    5bb8:	afc22dec 	sw	v0,11756(s8)
    5bbc:	240214e3 	li	v0,5347
    5bc0:	afc22df0 	sw	v0,11760(s8)
    5bc4:	2402097f 	li	v0,2431
    5bc8:	afc22df4 	sw	v0,11764(s8)
    5bcc:	240206d0 	li	v0,1744
    5bd0:	afc22df8 	sw	v0,11768(s8)
    5bd4:	24020bd2 	li	v0,3026
    5bd8:	afc22dfc 	sw	v0,11772(s8)
    5bdc:	24020b2d 	li	v0,2861
    5be0:	afc22e00 	sw	v0,11776(s8)
    5be4:	24021a37 	li	v0,6711
    5be8:	afc22e04 	sw	v0,11780(s8)
    5bec:	2402118c 	li	v0,4492
    5bf0:	afc22e08 	sw	v0,11784(s8)
    5bf4:	24021af2 	li	v0,6898
    5bf8:	afc22e0c 	sw	v0,11788(s8)
    5bfc:	24020940 	li	v0,2368
    5c00:	afc22e10 	sw	v0,11792(s8)
    5c04:	2402117d 	li	v0,4477
    5c08:	afc22e14 	sw	v0,11796(s8)
    5c0c:	240212d5 	li	v0,4821
    5c10:	afc22e18 	sw	v0,11800(s8)
    5c14:	24021234 	li	v0,4660
    5c18:	afc22e1c 	sw	v0,11804(s8)
    5c1c:	2402187f 	li	v0,6271
    5c20:	afc22e20 	sw	v0,11808(s8)
    5c24:	24021a86 	li	v0,6790
    5c28:	afc22e24 	sw	v0,11812(s8)
    5c2c:	24020cd7 	li	v0,3287
    5c30:	afc22e28 	sw	v0,11816(s8)
    5c34:	24020757 	li	v0,1879
    5c38:	afc22e2c 	sw	v0,11820(s8)
    5c3c:	24020adc 	li	v0,2780
    5c40:	afc22e30 	sw	v0,11824(s8)
    5c44:	24021a1f 	li	v0,6687
    5c48:	afc22e34 	sw	v0,11828(s8)
    5c4c:	24020a1a 	li	v0,2586
    5c50:	afc22e38 	sw	v0,11832(s8)
    5c54:	24022057 	li	v0,8279
    5c58:	afc22e3c 	sw	v0,11836(s8)
    5c5c:	240221a5 	li	v0,8613
    5c60:	afc22e40 	sw	v0,11840(s8)
    5c64:	24021cc3 	li	v0,7363
    5c68:	afc22e44 	sw	v0,11844(s8)
    5c6c:	24021d0c 	li	v0,7436
    5c70:	afc22e48 	sw	v0,11848(s8)
    5c74:	24021bd4 	li	v0,7124
    5c78:	afc22e4c 	sw	v0,11852(s8)
    5c7c:	240221a1 	li	v0,8609
    5c80:	afc22e50 	sw	v0,11856(s8)
    5c84:	240220ec 	li	v0,8428
    5c88:	afc22e54 	sw	v0,11860(s8)
    5c8c:	2402136e 	li	v0,4974
    5c90:	afc22e58 	sw	v0,11864(s8)
    5c94:	240213ca 	li	v0,5066
    5c98:	afc22e5c 	sw	v0,11868(s8)
    5c9c:	240206df 	li	v0,1759
    5ca0:	afc22e60 	sw	v0,11872(s8)
    5ca4:	2402146d 	li	v0,5229
    5ca8:	afc22e64 	sw	v0,11876(s8)
    5cac:	240213a3 	li	v0,5027
    5cb0:	afc22e68 	sw	v0,11880(s8)
    5cb4:	24020d82 	li	v0,3458
    5cb8:	afc22e6c 	sw	v0,11884(s8)
    5cbc:	24021dec 	li	v0,7660
    5cc0:	afc22e70 	sw	v0,11888(s8)
    5cc4:	24021a73 	li	v0,6771
    5cc8:	afc22e74 	sw	v0,11892(s8)
    5ccc:	24021954 	li	v0,6484
    5cd0:	afc22e78 	sw	v0,11896(s8)
    5cd4:	24021ad9 	li	v0,6873
    5cd8:	afc22e7c 	sw	v0,11900(s8)
    5cdc:	2402266b 	li	v0,9835
    5ce0:	afc22e80 	sw	v0,11904(s8)
    5ce4:	24021ca1 	li	v0,7329
    5ce8:	afc22e84 	sw	v0,11908(s8)
    5cec:	2402007c 	li	v0,124
    5cf0:	afc22e88 	sw	v0,11912(s8)
    5cf4:	2402089b 	li	v0,2203
    5cf8:	afc22e8c 	sw	v0,11916(s8)
    5cfc:	24021fde 	li	v0,8158
    5d00:	afc22e90 	sw	v0,11920(s8)
    5d04:	24021351 	li	v0,4945
    5d08:	afc22e94 	sw	v0,11924(s8)
    5d0c:	24020c8f 	li	v0,3215
    5d10:	afc22e98 	sw	v0,11928(s8)
    5d14:	2402030e 	li	v0,782
    5d18:	afc22e9c 	sw	v0,11932(s8)
    5d1c:	24021f98 	li	v0,8088
    5d20:	afc22ea0 	sw	v0,11936(s8)
    5d24:	24021967 	li	v0,6503
    5d28:	afc22ea4 	sw	v0,11940(s8)
    5d2c:	24020a65 	li	v0,2661
    5d30:	afc22ea8 	sw	v0,11944(s8)
    5d34:	24020364 	li	v0,868
    5d38:	afc22eac 	sw	v0,11948(s8)
    5d3c:	24022546 	li	v0,9542
    5d40:	afc22eb0 	sw	v0,11952(s8)
    5d44:	2402147f 	li	v0,5247
    5d48:	afc22eb4 	sw	v0,11956(s8)
    5d4c:	2402157c 	li	v0,5500
    5d50:	afc22eb8 	sw	v0,11960(s8)
    5d54:	24021fdb 	li	v0,8155
    5d58:	afc22ebc 	sw	v0,11964(s8)
    5d5c:	24022302 	li	v0,8962
    5d60:	afc22ec0 	sw	v0,11968(s8)
    5d64:	24020b78 	li	v0,2936
    5d68:	afc22ec4 	sw	v0,11972(s8)
    5d6c:	2402065f 	li	v0,1631
    5d70:	afc22ec8 	sw	v0,11976(s8)
    5d74:	24021d93 	li	v0,7571
    5d78:	afc22ecc 	sw	v0,11980(s8)
    5d7c:	24021e25 	li	v0,7717
    5d80:	afc22ed0 	sw	v0,11984(s8)
    5d84:	24020b8e 	li	v0,2958
    5d88:	afc22ed4 	sw	v0,11988(s8)
    5d8c:	24020a4e 	li	v0,2638
    5d90:	afc22ed8 	sw	v0,11992(s8)
    5d94:	24022504 	li	v0,9476
    5d98:	afc22edc 	sw	v0,11996(s8)
    5d9c:	24021ffb 	li	v0,8187
    5da0:	afc22ee0 	sw	v0,12000(s8)
    5da4:	24020fb1 	li	v0,4017
    5da8:	afc22ee4 	sw	v0,12004(s8)
    5dac:	24020b76 	li	v0,2934
    5db0:	afc22ee8 	sw	v0,12008(s8)
    5db4:	24020897 	li	v0,2199
    5db8:	afc22eec 	sw	v0,12012(s8)
    5dbc:	24021be4 	li	v0,7140
    5dc0:	afc22ef0 	sw	v0,12016(s8)
    5dc4:	2402168a 	li	v0,5770
    5dc8:	afc22ef4 	sw	v0,12020(s8)
    5dcc:	24022370 	li	v0,9072
    5dd0:	afc22ef8 	sw	v0,12024(s8)
    5dd4:	24020cff 	li	v0,3327
    5dd8:	afc22efc 	sw	v0,12028(s8)
    5ddc:	240224eb 	li	v0,9451
    5de0:	afc22f00 	sw	v0,12032(s8)
    5de4:	240223ec 	li	v0,9196
    5de8:	afc22f04 	sw	v0,12036(s8)
    5dec:	2402075a 	li	v0,1882
    5df0:	afc22f08 	sw	v0,12040(s8)
    5df4:	24021dba 	li	v0,7610
    5df8:	afc22f0c 	sw	v0,12044(s8)
    5dfc:	240201ee 	li	v0,494
    5e00:	afc22f10 	sw	v0,12048(s8)
    5e04:	240213ea 	li	v0,5098
    5e08:	afc22f14 	sw	v0,12052(s8)
    5e0c:	240220c8 	li	v0,8392
    5e10:	afc22f18 	sw	v0,12056(s8)
    5e14:	24022186 	li	v0,8582
    5e18:	afc22f1c 	sw	v0,12060(s8)
    5e1c:	24021f11 	li	v0,7953
    5e20:	afc22f20 	sw	v0,12064(s8)
    5e24:	2402041d 	li	v0,1053
    5e28:	afc22f24 	sw	v0,12068(s8)
    5e2c:	240216aa 	li	v0,5802
    5e30:	afc22f28 	sw	v0,12072(s8)
    5e34:	24020f07 	li	v0,3847
    5e38:	afc22f2c 	sw	v0,12076(s8)
    5e3c:	24020a5c 	li	v0,2652
    5e40:	afc22f30 	sw	v0,12080(s8)
    5e44:	24021de6 	li	v0,7654
    5e48:	afc22f34 	sw	v0,12084(s8)
    5e4c:	240220a3 	li	v0,8355
    5e50:	afc22f38 	sw	v0,12088(s8)
    5e54:	2402064e 	li	v0,1614
    5e58:	afc22f3c 	sw	v0,12092(s8)
    5e5c:	2402024f 	li	v0,591
    5e60:	afc22f40 	sw	v0,12096(s8)
    5e64:	24022702 	li	v0,9986
    5e68:	afc22f44 	sw	v0,12100(s8)
    5e6c:	240215a2 	li	v0,5538
    5e70:	afc22f48 	sw	v0,12104(s8)
    5e74:	24021234 	li	v0,4660
    5e78:	afc22f4c 	sw	v0,12108(s8)
    5e7c:	24020b80 	li	v0,2944
    5e80:	afc22f50 	sw	v0,12112(s8)
    5e84:	240211b0 	li	v0,4528
    5e88:	afc22f54 	sw	v0,12116(s8)
    5e8c:	240201e8 	li	v0,488
    5e90:	afc22f58 	sw	v0,12120(s8)
    5e94:	24021d3b 	li	v0,7483
    5e98:	afc22f5c 	sw	v0,12124(s8)
    5e9c:	24022161 	li	v0,8545
    5ea0:	afc22f60 	sw	v0,12128(s8)
    5ea4:	24020d5e 	li	v0,3422
    5ea8:	afc22f64 	sw	v0,12132(s8)
    5eac:	24021792 	li	v0,6034
    5eb0:	afc22f68 	sw	v0,12136(s8)
    5eb4:	240207f5 	li	v0,2037
    5eb8:	afc22f6c 	sw	v0,12140(s8)
    5ebc:	240215a8 	li	v0,5544
    5ec0:	afc22f70 	sw	v0,12144(s8)
    5ec4:	240213f3 	li	v0,5107
    5ec8:	afc22f74 	sw	v0,12148(s8)
    5ecc:	240214f5 	li	v0,5365
    5ed0:	afc22f78 	sw	v0,12152(s8)
    5ed4:	24021384 	li	v0,4996
    5ed8:	afc22f7c 	sw	v0,12156(s8)
    5edc:	2402028f 	li	v0,655
    5ee0:	afc22f80 	sw	v0,12160(s8)
    5ee4:	24021c4f 	li	v0,7247
    5ee8:	afc22f84 	sw	v0,12164(s8)
    5eec:	24020a2e 	li	v0,2606
    5ef0:	afc22f88 	sw	v0,12168(s8)
    5ef4:	2402047d 	li	v0,1149
    5ef8:	afc22f8c 	sw	v0,12172(s8)
    5efc:	240221f9 	li	v0,8697
    5f00:	afc22f90 	sw	v0,12176(s8)
    5f04:	24021cb6 	li	v0,7350
    5f08:	afc22f94 	sw	v0,12180(s8)
    5f0c:	240217c3 	li	v0,6083
    5f10:	afc22f98 	sw	v0,12184(s8)
    5f14:	24020bba 	li	v0,3002
    5f18:	afc22f9c 	sw	v0,12188(s8)
    5f1c:	240220d3 	li	v0,8403
    5f20:	afc22fa0 	sw	v0,12192(s8)
    5f24:	2402202e 	li	v0,8238
    5f28:	afc22fa4 	sw	v0,12196(s8)
    5f2c:	24021ac2 	li	v0,6850
    5f30:	afc22fa8 	sw	v0,12200(s8)
    5f34:	2402041f 	li	v0,1055
    5f38:	afc22fac 	sw	v0,12204(s8)
    5f3c:	24021704 	li	v0,5892
    5f40:	afc22fb0 	sw	v0,12208(s8)
    5f44:	24021455 	li	v0,5205
    5f48:	afc22fb4 	sw	v0,12212(s8)
    5f4c:	2402233d 	li	v0,9021
    5f50:	afc22fb8 	sw	v0,12216(s8)
    5f54:	24020b13 	li	v0,2835
    5f58:	afc22fbc 	sw	v0,12220(s8)
    5f5c:	24021447 	li	v0,5191
    5f60:	afc22fc0 	sw	v0,12224(s8)
    5f64:	2402038f 	li	v0,911
    5f68:	afc22fc4 	sw	v0,12228(s8)
    5f6c:	24021d47 	li	v0,7495
    5f70:	afc22fc8 	sw	v0,12232(s8)
    5f74:	24021188 	li	v0,4488
    5f78:	afc22fcc 	sw	v0,12236(s8)
    5f7c:	2402153f 	li	v0,5439
    5f80:	afc22fd0 	sw	v0,12240(s8)
    5f84:	24021f2f 	li	v0,7983
    5f88:	afc22fd4 	sw	v0,12244(s8)
    5f8c:	24022083 	li	v0,8323
    5f90:	afc22fd8 	sw	v0,12248(s8)
    5f94:	24020150 	li	v0,336
    5f98:	afc22fdc 	sw	v0,12252(s8)
    5f9c:	24021e4d 	li	v0,7757
    5fa0:	afc22fe0 	sw	v0,12256(s8)
    5fa4:	24021106 	li	v0,4358
    5fa8:	afc22fe4 	sw	v0,12260(s8)
    5fac:	24022216 	li	v0,8726
    5fb0:	afc22fe8 	sw	v0,12264(s8)
    5fb4:	24020ce6 	li	v0,3302
    5fb8:	afc22fec 	sw	v0,12268(s8)
    5fbc:	240224f9 	li	v0,9465
    5fc0:	afc22ff0 	sw	v0,12272(s8)
    5fc4:	24020ffb 	li	v0,4091
    5fc8:	afc22ff4 	sw	v0,12276(s8)
    5fcc:	2402122a 	li	v0,4650
    5fd0:	afc22ff8 	sw	v0,12280(s8)
    5fd4:	24020078 	li	v0,120
    5fd8:	afc22ffc 	sw	v0,12284(s8)
    5fdc:	24021e0a 	li	v0,7690
    5fe0:	afc23000 	sw	v0,12288(s8)
    5fe4:	24020e18 	li	v0,3608
    5fe8:	afc23004 	sw	v0,12292(s8)
    5fec:	24021dc6 	li	v0,7622
    5ff0:	afc23008 	sw	v0,12296(s8)
    5ff4:	240218f4 	li	v0,6388
    5ff8:	afc2300c 	sw	v0,12300(s8)
    5ffc:	240203be 	li	v0,958
    6000:	afc23010 	sw	v0,12304(s8)
    6004:	24020039 	li	v0,57
    6008:	afc23014 	sw	v0,12308(s8)
    600c:	240224ae 	li	v0,9390
    6010:	afc23018 	sw	v0,12312(s8)
    6014:	24022491 	li	v0,9361
    6018:	afc2301c 	sw	v0,12316(s8)
    601c:	24022067 	li	v0,8295
    6020:	afc23020 	sw	v0,12320(s8)
    6024:	24021860 	li	v0,6240
    6028:	afc23024 	sw	v0,12324(s8)
    602c:	24021a70 	li	v0,6768
    6030:	afc23028 	sw	v0,12328(s8)
    6034:	2402021c 	li	v0,540
    6038:	afc2302c 	sw	v0,12332(s8)
    603c:	24021e75 	li	v0,7797
    6040:	afc23030 	sw	v0,12336(s8)
    6044:	2402085d 	li	v0,2141
    6048:	afc23034 	sw	v0,12340(s8)
    604c:	24020d2f 	li	v0,3375
    6050:	afc23038 	sw	v0,12344(s8)
    6054:	2402247d 	li	v0,9341
    6058:	afc2303c 	sw	v0,12348(s8)
    605c:	24020bed 	li	v0,3053
    6060:	afc23040 	sw	v0,12352(s8)
    6064:	24021c37 	li	v0,7223
    6068:	afc23044 	sw	v0,12356(s8)
    606c:	24020ef5 	li	v0,3829
    6070:	afc23048 	sw	v0,12360(s8)
    6074:	240212ec 	li	v0,4844
    6078:	afc2304c 	sw	v0,12364(s8)
    607c:	24020616 	li	v0,1558
    6080:	afc23050 	sw	v0,12368(s8)
    6084:	24020868 	li	v0,2152
    6088:	afc23054 	sw	v0,12372(s8)
    608c:	240205fd 	li	v0,1533
    6090:	afc23058 	sw	v0,12376(s8)
    6094:	24022464 	li	v0,9316
    6098:	afc2305c 	sw	v0,12380(s8)
    609c:	2402196e 	li	v0,6510
    60a0:	afc23060 	sw	v0,12384(s8)
    60a4:	24020103 	li	v0,259
    60a8:	afc23064 	sw	v0,12388(s8)
    60ac:	2402230a 	li	v0,8970
    60b0:	afc23068 	sw	v0,12392(s8)
    60b4:	24020917 	li	v0,2327
    60b8:	afc2306c 	sw	v0,12396(s8)
    60bc:	240210fe 	li	v0,4350
    60c0:	afc23070 	sw	v0,12400(s8)
    60c4:	240226f4 	li	v0,9972
    60c8:	afc23074 	sw	v0,12404(s8)
    60cc:	24022260 	li	v0,8800
    60d0:	afc23078 	sw	v0,12408(s8)
    60d4:	240207f8 	li	v0,2040
    60d8:	afc2307c 	sw	v0,12412(s8)
    60dc:	24020dfc 	li	v0,3580
    60e0:	afc23080 	sw	v0,12416(s8)
    60e4:	24020ad6 	li	v0,2774
    60e8:	afc23084 	sw	v0,12420(s8)
    60ec:	240212ac 	li	v0,4780
    60f0:	afc23088 	sw	v0,12424(s8)
    60f4:	240211ba 	li	v0,4538
    60f8:	afc2308c 	sw	v0,12428(s8)
    60fc:	24020b0f 	li	v0,2831
    6100:	afc23090 	sw	v0,12432(s8)
    6104:	2402104b 	li	v0,4171
    6108:	afc23094 	sw	v0,12436(s8)
    610c:	24020f3b 	li	v0,3899
    6110:	afc23098 	sw	v0,12440(s8)
    6114:	24021d37 	li	v0,7479
    6118:	afc2309c 	sw	v0,12444(s8)
    611c:	24021a6b 	li	v0,6763
    6120:	afc230a0 	sw	v0,12448(s8)
    6124:	24021b6b 	li	v0,7019
    6128:	afc230a4 	sw	v0,12452(s8)
    612c:	24021f53 	li	v0,8019
    6130:	afc230a8 	sw	v0,12456(s8)
    6134:	240211d1 	li	v0,4561
    6138:	afc230ac 	sw	v0,12460(s8)
    613c:	24021588 	li	v0,5512
    6140:	afc230b0 	sw	v0,12464(s8)
    6144:	24021e42 	li	v0,7746
    6148:	afc230b4 	sw	v0,12468(s8)
    614c:	240200fe 	li	v0,254
    6150:	afc230b8 	sw	v0,12472(s8)
    6154:	24021335 	li	v0,4917
    6158:	afc230bc 	sw	v0,12476(s8)
    615c:	24021369 	li	v0,4969
    6160:	afc230c0 	sw	v0,12480(s8)
    6164:	24020ff3 	li	v0,4083
    6168:	afc230c4 	sw	v0,12484(s8)
    616c:	24022622 	li	v0,9762
    6170:	afc230c8 	sw	v0,12488(s8)
    6174:	24021980 	li	v0,6528
    6178:	afc230cc 	sw	v0,12492(s8)
    617c:	24020a1b 	li	v0,2587
    6180:	afc230d0 	sw	v0,12496(s8)
    6184:	2402050f 	li	v0,1295
    6188:	afc230d4 	sw	v0,12500(s8)
    618c:	24020894 	li	v0,2196
    6190:	afc230d8 	sw	v0,12504(s8)
    6194:	2402154a 	li	v0,5450
    6198:	afc230dc 	sw	v0,12508(s8)
    619c:	24020612 	li	v0,1554
    61a0:	afc230e0 	sw	v0,12512(s8)
    61a4:	2402048e 	li	v0,1166
    61a8:	afc230e4 	sw	v0,12516(s8)
    61ac:	24021021 	li	v0,4129
    61b0:	afc230e8 	sw	v0,12520(s8)
    61b4:	240208d0 	li	v0,2256
    61b8:	afc230ec 	sw	v0,12524(s8)
    61bc:	24020472 	li	v0,1138
    61c0:	afc230f0 	sw	v0,12528(s8)
    61c4:	24020b71 	li	v0,2929
    61c8:	afc230f4 	sw	v0,12532(s8)
    61cc:	240210c8 	li	v0,4296
    61d0:	afc230f8 	sw	v0,12536(s8)
    61d4:	2402126e 	li	v0,4718
    61d8:	afc230fc 	sw	v0,12540(s8)
    61dc:	24020807 	li	v0,2055
    61e0:	afc23100 	sw	v0,12544(s8)
    61e4:	24021535 	li	v0,5429
    61e8:	afc23104 	sw	v0,12548(s8)
    61ec:	240215e8 	li	v0,5608
    61f0:	afc23108 	sw	v0,12552(s8)
    61f4:	24021317 	li	v0,4887
    61f8:	afc2310c 	sw	v0,12556(s8)
    61fc:	24022580 	li	v0,9600
    6200:	afc23110 	sw	v0,12560(s8)
    6204:	24022523 	li	v0,9507
    6208:	afc23114 	sw	v0,12564(s8)
    620c:	2402220e 	li	v0,8718
    6210:	afc23118 	sw	v0,12568(s8)
    6214:	24020a9b 	li	v0,2715
    6218:	afc2311c 	sw	v0,12572(s8)
    621c:	24020b3e 	li	v0,2878
    6220:	afc23120 	sw	v0,12576(s8)
    6224:	24021a51 	li	v0,6737
    6228:	afc23124 	sw	v0,12580(s8)
    622c:	24020e2c 	li	v0,3628
    6230:	afc23128 	sw	v0,12584(s8)
    6234:	240220c6 	li	v0,8390
    6238:	afc2312c 	sw	v0,12588(s8)
    623c:	24020343 	li	v0,835
    6240:	afc23130 	sw	v0,12592(s8)
    6244:	24020f2a 	li	v0,3882
    6248:	afc23134 	sw	v0,12596(s8)
    624c:	24020cec 	li	v0,3308
    6250:	afc23138 	sw	v0,12600(s8)
    6254:	240216ad 	li	v0,5805
    6258:	afc2313c 	sw	v0,12604(s8)
    625c:	240210dd 	li	v0,4317
    6260:	afc23140 	sw	v0,12608(s8)
    6264:	240224ce 	li	v0,9422
    6268:	afc23144 	sw	v0,12612(s8)
    626c:	240221ed 	li	v0,8685
    6270:	afc23148 	sw	v0,12616(s8)
    6274:	24020cb9 	li	v0,3257
    6278:	afc2314c 	sw	v0,12620(s8)
    627c:	24021b9d 	li	v0,7069
    6280:	afc23150 	sw	v0,12624(s8)
    6284:	24020371 	li	v0,881
    6288:	afc23154 	sw	v0,12628(s8)
    628c:	24022203 	li	v0,8707
    6290:	afc23158 	sw	v0,12632(s8)
    6294:	240221af 	li	v0,8623
    6298:	afc2315c 	sw	v0,12636(s8)
    629c:	240220cf 	li	v0,8399
    62a0:	afc23160 	sw	v0,12640(s8)
    62a4:	24020b14 	li	v0,2836
    62a8:	afc23164 	sw	v0,12644(s8)
    62ac:	2402036f 	li	v0,879
    62b0:	afc23168 	sw	v0,12648(s8)
    62b4:	24021701 	li	v0,5889
    62b8:	afc2316c 	sw	v0,12652(s8)
    62bc:	24020846 	li	v0,2118
    62c0:	afc23170 	sw	v0,12656(s8)
    62c4:	240205f7 	li	v0,1527
    62c8:	afc23174 	sw	v0,12660(s8)
    62cc:	2402025f 	li	v0,607
    62d0:	afc23178 	sw	v0,12664(s8)
    62d4:	2402104d 	li	v0,4173
    62d8:	afc2317c 	sw	v0,12668(s8)
    62dc:	24021b2c 	li	v0,6956
    62e0:	afc23180 	sw	v0,12672(s8)
    62e4:	24021847 	li	v0,6215
    62e8:	afc23184 	sw	v0,12676(s8)
    62ec:	24021524 	li	v0,5412
    62f0:	afc23188 	sw	v0,12680(s8)
    62f4:	24020b5c 	li	v0,2908
    62f8:	afc2318c 	sw	v0,12684(s8)
    62fc:	2402081a 	li	v0,2074
    6300:	afc23190 	sw	v0,12688(s8)
    6304:	24021022 	li	v0,4130
    6308:	afc23194 	sw	v0,12692(s8)
    630c:	240207b8 	li	v0,1976
    6310:	afc23198 	sw	v0,12696(s8)
    6314:	24020518 	li	v0,1304
    6318:	afc2319c 	sw	v0,12700(s8)
    631c:	24021c33 	li	v0,7219
    6320:	afc231a0 	sw	v0,12704(s8)
    6324:	240207a4 	li	v0,1956
    6328:	afc231a4 	sw	v0,12708(s8)
    632c:	2402179e 	li	v0,6046
    6330:	afc231a8 	sw	v0,12712(s8)
    6334:	24021f77 	li	v0,8055
    6338:	afc231ac 	sw	v0,12716(s8)
    633c:	240216cf 	li	v0,5839
    6340:	afc231b0 	sw	v0,12720(s8)
    6344:	2402164a 	li	v0,5706
    6348:	afc231b4 	sw	v0,12724(s8)
    634c:	240200d4 	li	v0,212
    6350:	afc231b8 	sw	v0,12728(s8)
    6354:	2402196c 	li	v0,6508
    6358:	afc231bc 	sw	v0,12732(s8)
    635c:	24021408 	li	v0,5128
    6360:	afc231c0 	sw	v0,12736(s8)
    6364:	240222c1 	li	v0,8897
    6368:	afc231c4 	sw	v0,12740(s8)
    636c:	24022625 	li	v0,9765
    6370:	afc231c8 	sw	v0,12744(s8)
    6374:	24020895 	li	v0,2197
    6378:	afc231cc 	sw	v0,12748(s8)
    637c:	240217f2 	li	v0,6130
    6380:	afc231d0 	sw	v0,12752(s8)
    6384:	24022118 	li	v0,8472
    6388:	afc231d4 	sw	v0,12756(s8)
    638c:	24021c04 	li	v0,7172
    6390:	afc231d8 	sw	v0,12760(s8)
    6394:	240211b1 	li	v0,4529
    6398:	afc231dc 	sw	v0,12764(s8)
    639c:	24021ded 	li	v0,7661
    63a0:	afc231e0 	sw	v0,12768(s8)
    63a4:	24021133 	li	v0,4403
    63a8:	afc231e4 	sw	v0,12772(s8)
    63ac:	240201a2 	li	v0,418
    63b0:	afc231e8 	sw	v0,12776(s8)
    63b4:	240217f3 	li	v0,6131
    63b8:	afc231ec 	sw	v0,12780(s8)
    63bc:	240208eb 	li	v0,2283
    63c0:	afc231f0 	sw	v0,12784(s8)
    63c4:	24021cd1 	li	v0,7377
    63c8:	afc231f4 	sw	v0,12788(s8)
    63cc:	24021a00 	li	v0,6656
    63d0:	afc231f8 	sw	v0,12792(s8)
    63d4:	240215d7 	li	v0,5591
    63d8:	afc231fc 	sw	v0,12796(s8)
    63dc:	240226d8 	li	v0,9944
    63e0:	afc23200 	sw	v0,12800(s8)
    63e4:	24020815 	li	v0,2069
    63e8:	afc23204 	sw	v0,12804(s8)
    63ec:	240212f4 	li	v0,4852
    63f0:	afc23208 	sw	v0,12808(s8)
    63f4:	240220b2 	li	v0,8370
    63f8:	afc2320c 	sw	v0,12812(s8)
    63fc:	240209f7 	li	v0,2551
    6400:	afc23210 	sw	v0,12816(s8)
    6404:	24021aac 	li	v0,6828
    6408:	afc23214 	sw	v0,12820(s8)
    640c:	2402178a 	li	v0,6026
    6410:	afc23218 	sw	v0,12824(s8)
    6414:	240217eb 	li	v0,6123
    6418:	afc2321c 	sw	v0,12828(s8)
    641c:	24022250 	li	v0,8784
    6420:	afc23220 	sw	v0,12832(s8)
    6424:	24020818 	li	v0,2072
    6428:	afc23224 	sw	v0,12836(s8)
    642c:	24020212 	li	v0,530
    6430:	afc23228 	sw	v0,12840(s8)
    6434:	240203cf 	li	v0,975
    6438:	afc2322c 	sw	v0,12844(s8)
    643c:	24021e63 	li	v0,7779
    6440:	afc23230 	sw	v0,12848(s8)
    6444:	24021bb6 	li	v0,7094
    6448:	afc23234 	sw	v0,12852(s8)
    644c:	24021d3c 	li	v0,7484
    6450:	afc23238 	sw	v0,12856(s8)
    6454:	2402242b 	li	v0,9259
    6458:	afc2323c 	sw	v0,12860(s8)
    645c:	24021767 	li	v0,5991
    6460:	afc23240 	sw	v0,12864(s8)
    6464:	24021c51 	li	v0,7249
    6468:	afc23244 	sw	v0,12868(s8)
    646c:	24021e81 	li	v0,7809
    6470:	afc23248 	sw	v0,12872(s8)
    6474:	24022119 	li	v0,8473
    6478:	afc2324c 	sw	v0,12876(s8)
    647c:	2402081a 	li	v0,2074
    6480:	afc23250 	sw	v0,12880(s8)
    6484:	24021375 	li	v0,4981
    6488:	afc23254 	sw	v0,12884(s8)
    648c:	24020bba 	li	v0,3002
    6490:	afc23258 	sw	v0,12888(s8)
    6494:	24022607 	li	v0,9735
    6498:	afc2325c 	sw	v0,12892(s8)
    649c:	24021669 	li	v0,5737
    64a0:	afc23260 	sw	v0,12896(s8)
    64a4:	2402262c 	li	v0,9772
    64a8:	afc23264 	sw	v0,12900(s8)
    64ac:	240216ea 	li	v0,5866
    64b0:	afc23268 	sw	v0,12904(s8)
    64b4:	24021f54 	li	v0,8020
    64b8:	afc2326c 	sw	v0,12908(s8)
    64bc:	24020dad 	li	v0,3501
    64c0:	afc23270 	sw	v0,12912(s8)
    64c4:	240222aa 	li	v0,8874
    64c8:	afc23274 	sw	v0,12916(s8)
    64cc:	24020e1b 	li	v0,3611
    64d0:	afc23278 	sw	v0,12920(s8)
    64d4:	24020d75 	li	v0,3445
    64d8:	afc2327c 	sw	v0,12924(s8)
    64dc:	240203af 	li	v0,943
    64e0:	afc23280 	sw	v0,12928(s8)
    64e4:	240212cf 	li	v0,4815
    64e8:	afc23284 	sw	v0,12932(s8)
    64ec:	24021fe7 	li	v0,8167
    64f0:	afc23288 	sw	v0,12936(s8)
    64f4:	24022677 	li	v0,9847
    64f8:	afc2328c 	sw	v0,12940(s8)
    64fc:	2402066b 	li	v0,1643
    6500:	afc23290 	sw	v0,12944(s8)
    6504:	24021061 	li	v0,4193
    6508:	afc23294 	sw	v0,12948(s8)
    650c:	24020912 	li	v0,2322
    6510:	afc23298 	sw	v0,12952(s8)
    6514:	24021a7c 	li	v0,6780
    6518:	afc2329c 	sw	v0,12956(s8)
    651c:	24020a39 	li	v0,2617
    6520:	afc232a0 	sw	v0,12960(s8)
    6524:	240223f4 	li	v0,9204
    6528:	afc232a4 	sw	v0,12964(s8)
    652c:	2402100b 	li	v0,4107
    6530:	afc232a8 	sw	v0,12968(s8)
    6534:	2402018c 	li	v0,396
    6538:	afc232ac 	sw	v0,12972(s8)
    653c:	2402189a 	li	v0,6298
    6540:	afc232b0 	sw	v0,12976(s8)
    6544:	24020637 	li	v0,1591
    6548:	afc232b4 	sw	v0,12980(s8)
    654c:	24021778 	li	v0,6008
    6550:	afc232b8 	sw	v0,12984(s8)
    6554:	240208f1 	li	v0,2289
    6558:	afc232bc 	sw	v0,12988(s8)
    655c:	24021449 	li	v0,5193
    6560:	afc232c0 	sw	v0,12992(s8)
    6564:	24020ee9 	li	v0,3817
    6568:	afc232c4 	sw	v0,12996(s8)
    656c:	240202fa 	li	v0,762
    6570:	afc232c8 	sw	v0,13000(s8)
    6574:	24021c63 	li	v0,7267
    6578:	afc232cc 	sw	v0,13004(s8)
    657c:	2402141e 	li	v0,5150
    6580:	afc232d0 	sw	v0,13008(s8)
    6584:	24020074 	li	v0,116
    6588:	afc232d4 	sw	v0,13012(s8)
    658c:	24020d1a 	li	v0,3354
    6590:	afc232d8 	sw	v0,13016(s8)
    6594:	24020377 	li	v0,887
    6598:	afc232dc 	sw	v0,13020(s8)
    659c:	24021860 	li	v0,6240
    65a0:	afc232e0 	sw	v0,13024(s8)
    65a4:	240215c4 	li	v0,5572
    65a8:	afc232e4 	sw	v0,13028(s8)
    65ac:	2402148b 	li	v0,5259
    65b0:	afc232e8 	sw	v0,13032(s8)
    65b4:	2402260d 	li	v0,9741
    65b8:	afc232ec 	sw	v0,13036(s8)
    65bc:	2402115e 	li	v0,4446
    65c0:	afc232f0 	sw	v0,13040(s8)
    65c4:	24021467 	li	v0,5223
    65c8:	afc232f4 	sw	v0,13044(s8)
    65cc:	24022542 	li	v0,9538
    65d0:	afc232f8 	sw	v0,13048(s8)
    65d4:	240206ce 	li	v0,1742
    65d8:	afc232fc 	sw	v0,13052(s8)
    65dc:	24020026 	li	v0,38
    65e0:	afc23300 	sw	v0,13056(s8)
    65e4:	24021e19 	li	v0,7705
    65e8:	afc23304 	sw	v0,13060(s8)
    65ec:	24020635 	li	v0,1589
    65f0:	afc23308 	sw	v0,13064(s8)
    65f4:	24020692 	li	v0,1682
    65f8:	afc2330c 	sw	v0,13068(s8)
    65fc:	2402203a 	li	v0,8250
    6600:	afc23310 	sw	v0,13072(s8)
    6604:	24020107 	li	v0,263
    6608:	afc23314 	sw	v0,13076(s8)
    660c:	240212ce 	li	v0,4814
    6610:	afc23318 	sw	v0,13080(s8)
    6614:	24020363 	li	v0,867
    6618:	afc2331c 	sw	v0,13084(s8)
    661c:	240224fb 	li	v0,9467
    6620:	afc23320 	sw	v0,13088(s8)
    6624:	240222d9 	li	v0,8921
    6628:	afc23324 	sw	v0,13092(s8)
    662c:	24021dc0 	li	v0,7616
    6630:	afc23328 	sw	v0,13096(s8)
    6634:	24021685 	li	v0,5765
    6638:	afc2332c 	sw	v0,13100(s8)
    663c:	24021ad1 	li	v0,6865
    6640:	afc23330 	sw	v0,13104(s8)
    6644:	24020e28 	li	v0,3624
    6648:	afc23334 	sw	v0,13108(s8)
    664c:	24021136 	li	v0,4406
    6650:	afc23338 	sw	v0,13112(s8)
    6654:	2402080a 	li	v0,2058
    6658:	afc2333c 	sw	v0,13116(s8)
    665c:	24021d11 	li	v0,7441
    6660:	afc23340 	sw	v0,13120(s8)
    6664:	240205f0 	li	v0,1520
    6668:	afc23344 	sw	v0,13124(s8)
    666c:	2402246d 	li	v0,9325
    6670:	afc23348 	sw	v0,13128(s8)
    6674:	24020a1f 	li	v0,2591
    6678:	afc2334c 	sw	v0,13132(s8)
    667c:	24021f34 	li	v0,7988
    6680:	afc23350 	sw	v0,13136(s8)
    6684:	24020a77 	li	v0,2679
    6688:	afc23354 	sw	v0,13140(s8)
    668c:	24022667 	li	v0,9831
    6690:	afc23358 	sw	v0,13144(s8)
    6694:	24021084 	li	v0,4228
    6698:	afc2335c 	sw	v0,13148(s8)
    669c:	2402203b 	li	v0,8251
    66a0:	afc23360 	sw	v0,13152(s8)
    66a4:	240213e2 	li	v0,5090
    66a8:	afc23364 	sw	v0,13156(s8)
    66ac:	24020f81 	li	v0,3969
    66b0:	afc23368 	sw	v0,13160(s8)
    66b4:	24020a89 	li	v0,2697
    66b8:	afc2336c 	sw	v0,13164(s8)
    66bc:	24020139 	li	v0,313
    66c0:	afc23370 	sw	v0,13168(s8)
    66c4:	24022683 	li	v0,9859
    66c8:	afc23374 	sw	v0,13172(s8)
    66cc:	24020317 	li	v0,791
    66d0:	afc23378 	sw	v0,13176(s8)
    66d4:	24020160 	li	v0,352
    66d8:	afc2337c 	sw	v0,13180(s8)
    66dc:	24020f4c 	li	v0,3916
    66e0:	afc23380 	sw	v0,13184(s8)
    66e4:	2402221c 	li	v0,8732
    66e8:	afc23384 	sw	v0,13188(s8)
    66ec:	240220c2 	li	v0,8386
    66f0:	afc23388 	sw	v0,13192(s8)
    66f4:	24020876 	li	v0,2166
    66f8:	afc2338c 	sw	v0,13196(s8)
    66fc:	24022323 	li	v0,8995
    6700:	afc23390 	sw	v0,13200(s8)
    6704:	24020c80 	li	v0,3200
    6708:	afc23394 	sw	v0,13204(s8)
    670c:	240224a9 	li	v0,9385
    6710:	afc23398 	sw	v0,13208(s8)
    6714:	240212ce 	li	v0,4814
    6718:	afc2339c 	sw	v0,13212(s8)
    671c:	24022119 	li	v0,8473
    6720:	afc233a0 	sw	v0,13216(s8)
    6724:	24021b59 	li	v0,7001
    6728:	afc233a4 	sw	v0,13220(s8)
    672c:	24020243 	li	v0,579
    6730:	afc233a8 	sw	v0,13224(s8)
    6734:	240214da 	li	v0,5338
    6738:	afc233ac 	sw	v0,13228(s8)
    673c:	24021b41 	li	v0,6977
    6740:	afc233b0 	sw	v0,13232(s8)
    6744:	24020539 	li	v0,1337
    6748:	afc233b4 	sw	v0,13236(s8)
    674c:	24021ce4 	li	v0,7396
    6750:	afc233b8 	sw	v0,13240(s8)
    6754:	24021142 	li	v0,4418
    6758:	afc233bc 	sw	v0,13244(s8)
    675c:	24020b29 	li	v0,2857
    6760:	afc233c0 	sw	v0,13248(s8)
    6764:	24020c01 	li	v0,3073
    6768:	afc233c4 	sw	v0,13252(s8)
    676c:	24020d22 	li	v0,3362
    6770:	afc233c8 	sw	v0,13256(s8)
    6774:	2402034d 	li	v0,845
    6778:	afc233cc 	sw	v0,13260(s8)
    677c:	24020838 	li	v0,2104
    6780:	afc233d0 	sw	v0,13264(s8)
    6784:	24020c79 	li	v0,3193
    6788:	afc233d4 	sw	v0,13268(s8)
    678c:	24020591 	li	v0,1425
    6790:	afc233d8 	sw	v0,13272(s8)
    6794:	24021a33 	li	v0,6707
    6798:	afc233dc 	sw	v0,13276(s8)
    679c:	2402121b 	li	v0,4635
    67a0:	afc233e0 	sw	v0,13280(s8)
    67a4:	240206d2 	li	v0,1746
    67a8:	afc233e4 	sw	v0,13284(s8)
    67ac:	240224bd 	li	v0,9405
    67b0:	afc233e8 	sw	v0,13288(s8)
    67b4:	24021355 	li	v0,4949
    67b8:	afc233ec 	sw	v0,13292(s8)
    67bc:	24020645 	li	v0,1605
    67c0:	afc233f0 	sw	v0,13296(s8)
    67c4:	24021994 	li	v0,6548
    67c8:	afc233f4 	sw	v0,13300(s8)
    67cc:	24020675 	li	v0,1653
    67d0:	afc233f8 	sw	v0,13304(s8)
    67d4:	24020751 	li	v0,1873
    67d8:	afc233fc 	sw	v0,13308(s8)
    67dc:	240214a1 	li	v0,5281
    67e0:	afc23400 	sw	v0,13312(s8)
    67e4:	24020027 	li	v0,39
    67e8:	afc23404 	sw	v0,13316(s8)
    67ec:	24020fc7 	li	v0,4039
    67f0:	afc23408 	sw	v0,13320(s8)
    67f4:	240210b4 	li	v0,4276
    67f8:	afc2340c 	sw	v0,13324(s8)
    67fc:	24022577 	li	v0,9591
    6800:	afc23410 	sw	v0,13328(s8)
    6804:	24022631 	li	v0,9777
    6808:	afc23414 	sw	v0,13332(s8)
    680c:	24022383 	li	v0,9091
    6810:	afc23418 	sw	v0,13336(s8)
    6814:	24021f80 	li	v0,8064
    6818:	afc2341c 	sw	v0,13340(s8)
    681c:	24020c3a 	li	v0,3130
    6820:	afc23420 	sw	v0,13344(s8)
    6824:	24021786 	li	v0,6022
    6828:	afc23424 	sw	v0,13348(s8)
    682c:	2402261b 	li	v0,9755
    6830:	afc23428 	sw	v0,13352(s8)
    6834:	2402006c 	li	v0,108
    6838:	afc2342c 	sw	v0,13356(s8)
    683c:	24021cc0 	li	v0,7360
    6840:	afc23430 	sw	v0,13360(s8)
    6844:	24021bef 	li	v0,7151
    6848:	afc23434 	sw	v0,13364(s8)
    684c:	240211ae 	li	v0,4526
    6850:	afc23438 	sw	v0,13368(s8)
    6854:	240219a9 	li	v0,6569
    6858:	afc2343c 	sw	v0,13372(s8)
    685c:	240219b1 	li	v0,6577
    6860:	afc23440 	sw	v0,13376(s8)
    6864:	24021090 	li	v0,4240
    6868:	afc23444 	sw	v0,13380(s8)
    686c:	24021cf7 	li	v0,7415
    6870:	afc23448 	sw	v0,13384(s8)
    6874:	240221e9 	li	v0,8681
    6878:	afc2344c 	sw	v0,13388(s8)
    687c:	24021d09 	li	v0,7433
    6880:	afc23450 	sw	v0,13392(s8)
    6884:	24021448 	li	v0,5192
    6888:	afc23454 	sw	v0,13396(s8)
    688c:	2402150d 	li	v0,5389
    6890:	afc23458 	sw	v0,13400(s8)
    6894:	24020815 	li	v0,2069
    6898:	afc2345c 	sw	v0,13404(s8)
    689c:	24021b1b 	li	v0,6939
    68a0:	afc23460 	sw	v0,13408(s8)
    68a4:	2402047a 	li	v0,1146
    68a8:	afc23464 	sw	v0,13412(s8)
    68ac:	24020d2a 	li	v0,3370
    68b0:	afc23468 	sw	v0,13416(s8)
    68b4:	24021320 	li	v0,4896
    68b8:	afc2346c 	sw	v0,13420(s8)
    68bc:	24021e0e 	li	v0,7694
    68c0:	afc23470 	sw	v0,13424(s8)
    68c4:	2402139f 	li	v0,5023
    68c8:	afc23474 	sw	v0,13428(s8)
    68cc:	24021a72 	li	v0,6770
    68d0:	afc23478 	sw	v0,13432(s8)
    68d4:	24020b9f 	li	v0,2975
    68d8:	afc2347c 	sw	v0,13436(s8)
    68dc:	24020586 	li	v0,1414
    68e0:	afc23480 	sw	v0,13440(s8)
    68e4:	24021bf9 	li	v0,7161
    68e8:	afc23484 	sw	v0,13444(s8)
    68ec:	24020e14 	li	v0,3604
    68f0:	afc23488 	sw	v0,13448(s8)
    68f4:	240203ed 	li	v0,1005
    68f8:	afc2348c 	sw	v0,13452(s8)
    68fc:	24021b1a 	li	v0,6938
    6900:	afc23490 	sw	v0,13456(s8)
    6904:	24020a87 	li	v0,2695
    6908:	afc23494 	sw	v0,13460(s8)
    690c:	2402152d 	li	v0,5421
    6910:	afc23498 	sw	v0,13464(s8)
    6914:	24020045 	li	v0,69
    6918:	afc2349c 	sw	v0,13468(s8)
    691c:	240213cd 	li	v0,5069
    6920:	afc234a0 	sw	v0,13472(s8)
    6924:	24021438 	li	v0,5176
    6928:	afc234a4 	sw	v0,13476(s8)
    692c:	240200b1 	li	v0,177
    6930:	afc234a8 	sw	v0,13480(s8)
    6934:	2402097d 	li	v0,2429
    6938:	afc234ac 	sw	v0,13484(s8)
    693c:	240221e8 	li	v0,8680
    6940:	afc234b0 	sw	v0,13488(s8)
    6944:	2402041f 	li	v0,1055
    6948:	afc234b4 	sw	v0,13492(s8)
    694c:	24022327 	li	v0,8999
    6950:	afc234b8 	sw	v0,13496(s8)
    6954:	24021489 	li	v0,5257
    6958:	afc234bc 	sw	v0,13500(s8)
    695c:	240214b0 	li	v0,5296
    6960:	afc234c0 	sw	v0,13504(s8)
    6964:	24020ace 	li	v0,2766
    6968:	afc234c4 	sw	v0,13508(s8)
    696c:	24020f62 	li	v0,3938
    6970:	afc234c8 	sw	v0,13512(s8)
    6974:	24022379 	li	v0,9081
    6978:	afc234cc 	sw	v0,13516(s8)
    697c:	24021f16 	li	v0,7958
    6980:	afc234d0 	sw	v0,13520(s8)
    6984:	2402162f 	li	v0,5679
    6988:	afc234d4 	sw	v0,13524(s8)
    698c:	24021d4e 	li	v0,7502
    6990:	afc234d8 	sw	v0,13528(s8)
    6994:	240204e1 	li	v0,1249
    6998:	afc234dc 	sw	v0,13532(s8)
    699c:	24021aa9 	li	v0,6825
    69a0:	afc234e0 	sw	v0,13536(s8)
    69a4:	24021c38 	li	v0,7224
    69a8:	afc234e4 	sw	v0,13540(s8)
    69ac:	24021802 	li	v0,6146
    69b0:	afc234e8 	sw	v0,13544(s8)
    69b4:	24020368 	li	v0,872
    69b8:	afc234ec 	sw	v0,13548(s8)
    69bc:	240208c7 	li	v0,2247
    69c0:	afc234f0 	sw	v0,13552(s8)
    69c4:	24020b64 	li	v0,2916
    69c8:	afc234f4 	sw	v0,13556(s8)
    69cc:	24020f07 	li	v0,3847
    69d0:	afc234f8 	sw	v0,13560(s8)
    69d4:	24020e4d 	li	v0,3661
    69d8:	afc234fc 	sw	v0,13564(s8)
    69dc:	2402004d 	li	v0,77
    69e0:	afc23500 	sw	v0,13568(s8)
    69e4:	24021d1b 	li	v0,7451
    69e8:	afc23504 	sw	v0,13572(s8)
    69ec:	240203fa 	li	v0,1018
    69f0:	afc23508 	sw	v0,13576(s8)
    69f4:	24021b68 	li	v0,7016
    69f8:	afc2350c 	sw	v0,13580(s8)
    69fc:	24021962 	li	v0,6498
    6a00:	afc23510 	sw	v0,13584(s8)
    6a04:	24021928 	li	v0,6440
    6a08:	afc23514 	sw	v0,13588(s8)
    6a0c:	24020d6d 	li	v0,3437
    6a10:	afc23518 	sw	v0,13592(s8)
    6a14:	24020620 	li	v0,1568
    6a18:	afc2351c 	sw	v0,13596(s8)
    6a1c:	24020650 	li	v0,1616
    6a20:	afc23520 	sw	v0,13600(s8)
    6a24:	240226ee 	li	v0,9966
    6a28:	afc23524 	sw	v0,13604(s8)
    6a2c:	2402015d 	li	v0,349
    6a30:	afc23528 	sw	v0,13608(s8)
    6a34:	24020128 	li	v0,296
    6a38:	afc2352c 	sw	v0,13612(s8)
    6a3c:	240203fd 	li	v0,1021
    6a40:	afc23530 	sw	v0,13616(s8)
    6a44:	24022484 	li	v0,9348
    6a48:	afc23534 	sw	v0,13620(s8)
    6a4c:	24020771 	li	v0,1905
    6a50:	afc23538 	sw	v0,13624(s8)
    6a54:	24020a6d 	li	v0,2669
    6a58:	afc2353c 	sw	v0,13628(s8)
    6a5c:	24022112 	li	v0,8466
    6a60:	afc23540 	sw	v0,13632(s8)
    6a64:	24020894 	li	v0,2196
    6a68:	afc23544 	sw	v0,13636(s8)
    6a6c:	240206d7 	li	v0,1751
    6a70:	afc23548 	sw	v0,13640(s8)
    6a74:	24020ad9 	li	v0,2777
    6a78:	afc2354c 	sw	v0,13644(s8)
    6a7c:	24021ec3 	li	v0,7875
    6a80:	afc23550 	sw	v0,13648(s8)
    6a84:	240215e5 	li	v0,5605
    6a88:	afc23554 	sw	v0,13652(s8)
    6a8c:	24020fba 	li	v0,4026
    6a90:	afc23558 	sw	v0,13656(s8)
    6a94:	2402041d 	li	v0,1053
    6a98:	afc2355c 	sw	v0,13660(s8)
    6a9c:	24020b0e 	li	v0,2830
    6aa0:	afc23560 	sw	v0,13664(s8)
    6aa4:	240200ac 	li	v0,172
    6aa8:	afc23564 	sw	v0,13668(s8)
    6aac:	24020785 	li	v0,1925
    6ab0:	afc23568 	sw	v0,13672(s8)
    6ab4:	24020595 	li	v0,1429
    6ab8:	afc2356c 	sw	v0,13676(s8)
    6abc:	24020c10 	li	v0,3088
    6ac0:	afc23570 	sw	v0,13680(s8)
    6ac4:	2402168c 	li	v0,5772
    6ac8:	afc23574 	sw	v0,13684(s8)
    6acc:	240205a3 	li	v0,1443
    6ad0:	afc23578 	sw	v0,13688(s8)
    6ad4:	2402252e 	li	v0,9518
    6ad8:	afc2357c 	sw	v0,13692(s8)
    6adc:	24022568 	li	v0,9576
    6ae0:	afc23580 	sw	v0,13696(s8)
    6ae4:	2402099d 	li	v0,2461
    6ae8:	afc23584 	sw	v0,13700(s8)
    6aec:	24020b46 	li	v0,2886
    6af0:	afc23588 	sw	v0,13704(s8)
    6af4:	2402097a 	li	v0,2426
    6af8:	afc2358c 	sw	v0,13708(s8)
    6afc:	240222c5 	li	v0,8901
    6b00:	afc23590 	sw	v0,13712(s8)
    6b04:	240218b3 	li	v0,6323
    6b08:	afc23594 	sw	v0,13716(s8)
    6b0c:	24020f9a 	li	v0,3994
    6b10:	afc23598 	sw	v0,13720(s8)
    6b14:	24021ad6 	li	v0,6870
    6b18:	afc2359c 	sw	v0,13724(s8)
    6b1c:	24021891 	li	v0,6289
    6b20:	afc235a0 	sw	v0,13728(s8)
    6b24:	240202b8 	li	v0,696
    6b28:	afc235a4 	sw	v0,13732(s8)
    6b2c:	24020dbe 	li	v0,3518
    6b30:	afc235a8 	sw	v0,13736(s8)
    6b34:	24020e4e 	li	v0,3662
    6b38:	afc235ac 	sw	v0,13740(s8)
    6b3c:	240218fc 	li	v0,6396
    6b40:	afc235b0 	sw	v0,13744(s8)
    6b44:	24021530 	li	v0,5424
    6b48:	afc235b4 	sw	v0,13748(s8)
    6b4c:	240218bc 	li	v0,6332
    6b50:	afc235b8 	sw	v0,13752(s8)
    6b54:	240212ff 	li	v0,4863
    6b58:	afc235bc 	sw	v0,13756(s8)
    6b5c:	24021dc4 	li	v0,7620
    6b60:	afc235c0 	sw	v0,13760(s8)
    6b64:	24021153 	li	v0,4435
    6b68:	afc235c4 	sw	v0,13764(s8)
    6b6c:	24021dd8 	li	v0,7640
    6b70:	afc235c8 	sw	v0,13768(s8)
    6b74:	24020737 	li	v0,1847
    6b78:	afc235cc 	sw	v0,13772(s8)
    6b7c:	240218f8 	li	v0,6392
    6b80:	afc235d0 	sw	v0,13776(s8)
    6b84:	24021f52 	li	v0,8018
    6b88:	afc235d4 	sw	v0,13780(s8)
    6b8c:	24020b54 	li	v0,2900
    6b90:	afc235d8 	sw	v0,13784(s8)
    6b94:	24022406 	li	v0,9222
    6b98:	afc235dc 	sw	v0,13788(s8)
    6b9c:	240211bf 	li	v0,4543
    6ba0:	afc235e0 	sw	v0,13792(s8)
    6ba4:	240212d9 	li	v0,4825
    6ba8:	afc235e4 	sw	v0,13796(s8)
    6bac:	24021b5c 	li	v0,7004
    6bb0:	afc235e8 	sw	v0,13800(s8)
    6bb4:	24020f8f 	li	v0,3983
    6bb8:	afc235ec 	sw	v0,13804(s8)
    6bbc:	24021b26 	li	v0,6950
    6bc0:	afc235f0 	sw	v0,13808(s8)
    6bc4:	240220ff 	li	v0,8447
    6bc8:	afc235f4 	sw	v0,13812(s8)
    6bcc:	24020dad 	li	v0,3501
    6bd0:	afc235f8 	sw	v0,13816(s8)
    6bd4:	24020b3e 	li	v0,2878
    6bd8:	afc235fc 	sw	v0,13820(s8)
    6bdc:	2402038c 	li	v0,908
    6be0:	afc23600 	sw	v0,13824(s8)
    6be4:	240218f3 	li	v0,6387
    6be8:	afc23604 	sw	v0,13828(s8)
    6bec:	240214b8 	li	v0,5304
    6bf0:	afc23608 	sw	v0,13832(s8)
    6bf4:	24021812 	li	v0,6162
    6bf8:	afc2360c 	sw	v0,13836(s8)
    6bfc:	24022366 	li	v0,9062
    6c00:	afc23610 	sw	v0,13840(s8)
    6c04:	24021613 	li	v0,5651
    6c08:	afc23614 	sw	v0,13844(s8)
    6c0c:	24020bd8 	li	v0,3032
    6c10:	afc23618 	sw	v0,13848(s8)
    6c14:	240214e7 	li	v0,5351
    6c18:	afc2361c 	sw	v0,13852(s8)
    6c1c:	240218cb 	li	v0,6347
    6c20:	afc23620 	sw	v0,13856(s8)
    6c24:	24020b56 	li	v0,2902
    6c28:	afc23624 	sw	v0,13860(s8)
    6c2c:	240214f6 	li	v0,5366
    6c30:	afc23628 	sw	v0,13864(s8)
    6c34:	24020ab7 	li	v0,2743
    6c38:	afc2362c 	sw	v0,13868(s8)
    6c3c:	24022086 	li	v0,8326
    6c40:	afc23630 	sw	v0,13872(s8)
    6c44:	24021f72 	li	v0,8050
    6c48:	afc23634 	sw	v0,13876(s8)
    6c4c:	24020f76 	li	v0,3958
    6c50:	afc23638 	sw	v0,13880(s8)
    6c54:	240208fa 	li	v0,2298
    6c58:	afc2363c 	sw	v0,13884(s8)
    6c5c:	24022285 	li	v0,8837
    6c60:	afc23640 	sw	v0,13888(s8)
    6c64:	24021f0e 	li	v0,7950
    6c68:	afc23644 	sw	v0,13892(s8)
    6c6c:	240201f2 	li	v0,498
    6c70:	afc23648 	sw	v0,13896(s8)
    6c74:	2402146d 	li	v0,5229
    6c78:	afc2364c 	sw	v0,13900(s8)
    6c7c:	24021751 	li	v0,5969
    6c80:	afc23650 	sw	v0,13904(s8)
    6c84:	24020d46 	li	v0,3398
    6c88:	afc23654 	sw	v0,13908(s8)
    6c8c:	24020324 	li	v0,804
    6c90:	afc23658 	sw	v0,13912(s8)
    6c94:	24020200 	li	v0,512
    6c98:	afc2365c 	sw	v0,13916(s8)
    6c9c:	240211e0 	li	v0,4576
    6ca0:	afc23660 	sw	v0,13920(s8)
    6ca4:	24021e80 	li	v0,7808
    6ca8:	afc23664 	sw	v0,13924(s8)
    6cac:	2402034f 	li	v0,847
    6cb0:	afc23668 	sw	v0,13928(s8)
    6cb4:	24021ec6 	li	v0,7878
    6cb8:	afc2366c 	sw	v0,13932(s8)
    6cbc:	2402186f 	li	v0,6255
    6cc0:	afc23670 	sw	v0,13936(s8)
    6cc4:	240210fd 	li	v0,4349
    6cc8:	afc23674 	sw	v0,13940(s8)
    6ccc:	24021bc4 	li	v0,7108
    6cd0:	afc23678 	sw	v0,13944(s8)
    6cd4:	24021bfb 	li	v0,7163
    6cd8:	afc2367c 	sw	v0,13948(s8)
    6cdc:	240202e0 	li	v0,736
    6ce0:	afc23680 	sw	v0,13952(s8)
    6ce4:	2402223c 	li	v0,8764
    6ce8:	afc23684 	sw	v0,13956(s8)
    6cec:	240225cd 	li	v0,9677
    6cf0:	afc23688 	sw	v0,13960(s8)
    6cf4:	24021807 	li	v0,6151
    6cf8:	afc2368c 	sw	v0,13964(s8)
    6cfc:	2402113f 	li	v0,4415
    6d00:	afc23690 	sw	v0,13968(s8)
    6d04:	24020a95 	li	v0,2709
    6d08:	afc23694 	sw	v0,13972(s8)
    6d0c:	24021eae 	li	v0,7854
    6d10:	afc23698 	sw	v0,13976(s8)
    6d14:	24021bca 	li	v0,7114
    6d18:	afc2369c 	sw	v0,13980(s8)
    6d1c:	240215ec 	li	v0,5612
    6d20:	afc236a0 	sw	v0,13984(s8)
    6d24:	24020c94 	li	v0,3220
    6d28:	afc236a4 	sw	v0,13988(s8)
    6d2c:	24021842 	li	v0,6210
    6d30:	afc236a8 	sw	v0,13992(s8)
    6d34:	24020122 	li	v0,290
    6d38:	afc236ac 	sw	v0,13996(s8)
    6d3c:	240204f6 	li	v0,1270
    6d40:	afc236b0 	sw	v0,14000(s8)
    6d44:	240200a8 	li	v0,168
    6d48:	afc236b4 	sw	v0,14004(s8)
    6d4c:	240222ed 	li	v0,8941
    6d50:	afc236b8 	sw	v0,14008(s8)
    6d54:	2402006b 	li	v0,107
    6d58:	afc236bc 	sw	v0,14012(s8)
    6d5c:	24021177 	li	v0,4471
    6d60:	afc236c0 	sw	v0,14016(s8)
    6d64:	240224df 	li	v0,9439
    6d68:	afc236c4 	sw	v0,14020(s8)
    6d6c:	24020699 	li	v0,1689
    6d70:	afc236c8 	sw	v0,14024(s8)
    6d74:	240201b8 	li	v0,440
    6d78:	afc236cc 	sw	v0,14028(s8)
    6d7c:	240223e5 	li	v0,9189
    6d80:	afc236d0 	sw	v0,14032(s8)
    6d84:	240209bd 	li	v0,2493
    6d88:	afc236d4 	sw	v0,14036(s8)
    6d8c:	24021c88 	li	v0,7304
    6d90:	afc236d8 	sw	v0,14040(s8)
    6d94:	24020075 	li	v0,117
    6d98:	afc236dc 	sw	v0,14044(s8)
    6d9c:	240219fd 	li	v0,6653
    6da0:	afc236e0 	sw	v0,14048(s8)
    6da4:	24021fd7 	li	v0,8151
    6da8:	afc236e4 	sw	v0,14052(s8)
    6dac:	240210fb 	li	v0,4347
    6db0:	afc236e8 	sw	v0,14056(s8)
    6db4:	24020b5c 	li	v0,2908
    6db8:	afc236ec 	sw	v0,14060(s8)
    6dbc:	24022294 	li	v0,8852
    6dc0:	afc236f0 	sw	v0,14064(s8)
    6dc4:	240205af 	li	v0,1455
    6dc8:	afc236f4 	sw	v0,14068(s8)
    6dcc:	24021917 	li	v0,6423
    6dd0:	afc236f8 	sw	v0,14072(s8)
    6dd4:	24021735 	li	v0,5941
    6dd8:	afc236fc 	sw	v0,14076(s8)
    6ddc:	240219ac 	li	v0,6572
    6de0:	afc23700 	sw	v0,14080(s8)
    6de4:	240217d5 	li	v0,6101
    6de8:	afc23704 	sw	v0,14084(s8)
    6dec:	2402082c 	li	v0,2092
    6df0:	afc23708 	sw	v0,14088(s8)
    6df4:	24021cab 	li	v0,7339
    6df8:	afc2370c 	sw	v0,14092(s8)
    6dfc:	2402142a 	li	v0,5162
    6e00:	afc23710 	sw	v0,14096(s8)
    6e04:	240226da 	li	v0,9946
    6e08:	afc23714 	sw	v0,14100(s8)
    6e0c:	24021166 	li	v0,4454
    6e10:	afc23718 	sw	v0,14104(s8)
    6e14:	24021bd6 	li	v0,7126
    6e18:	afc2371c 	sw	v0,14108(s8)
    6e1c:	2402252f 	li	v0,9519
    6e20:	afc23720 	sw	v0,14112(s8)
    6e24:	24021b68 	li	v0,7016
    6e28:	afc23724 	sw	v0,14116(s8)
    6e2c:	24020eb9 	li	v0,3769
    6e30:	afc23728 	sw	v0,14120(s8)
    6e34:	24020315 	li	v0,789
    6e38:	afc2372c 	sw	v0,14124(s8)
    6e3c:	24021c10 	li	v0,7184
    6e40:	afc23730 	sw	v0,14128(s8)
    6e44:	24020a96 	li	v0,2710
    6e48:	afc23734 	sw	v0,14132(s8)
    6e4c:	24021c51 	li	v0,7249
    6e50:	afc23738 	sw	v0,14136(s8)
    6e54:	24020677 	li	v0,1655
    6e58:	afc2373c 	sw	v0,14140(s8)
    6e5c:	24022135 	li	v0,8501
    6e60:	afc23740 	sw	v0,14144(s8)
    6e64:	240214aa 	li	v0,5290
    6e68:	afc23744 	sw	v0,14148(s8)
    6e6c:	240220ff 	li	v0,8447
    6e70:	afc23748 	sw	v0,14152(s8)
    6e74:	24020fca 	li	v0,4042
    6e78:	afc2374c 	sw	v0,14156(s8)
    6e7c:	24021e67 	li	v0,7783
    6e80:	afc23750 	sw	v0,14160(s8)
    6e84:	24020837 	li	v0,2103
    6e88:	afc23754 	sw	v0,14164(s8)
    6e8c:	24020200 	li	v0,512
    6e90:	afc23758 	sw	v0,14168(s8)
    6e94:	24020314 	li	v0,788
    6e98:	afc2375c 	sw	v0,14172(s8)
    6e9c:	240219cf 	li	v0,6607
    6ea0:	afc23760 	sw	v0,14176(s8)
    6ea4:	240204bb 	li	v0,1211
    6ea8:	afc23764 	sw	v0,14180(s8)
    6eac:	24020e70 	li	v0,3696
    6eb0:	afc23768 	sw	v0,14184(s8)
    6eb4:	24020713 	li	v0,1811
    6eb8:	afc2376c 	sw	v0,14188(s8)
    6ebc:	2402233b 	li	v0,9019
    6ec0:	afc23770 	sw	v0,14192(s8)
    6ec4:	24021947 	li	v0,6471
    6ec8:	afc23774 	sw	v0,14196(s8)
    6ecc:	24021e48 	li	v0,7752
    6ed0:	afc23778 	sw	v0,14200(s8)
    6ed4:	240215d7 	li	v0,5591
    6ed8:	afc2377c 	sw	v0,14204(s8)
    6edc:	240222dc 	li	v0,8924
    6ee0:	afc23780 	sw	v0,14208(s8)
    6ee4:	24021834 	li	v0,6196
    6ee8:	afc23784 	sw	v0,14212(s8)
    6eec:	24020b72 	li	v0,2930
    6ef0:	afc23788 	sw	v0,14216(s8)
    6ef4:	24020ff7 	li	v0,4087
    6ef8:	afc2378c 	sw	v0,14220(s8)
    6efc:	240217ff 	li	v0,6143
    6f00:	afc23790 	sw	v0,14224(s8)
    6f04:	24020e98 	li	v0,3736
    6f08:	afc23794 	sw	v0,14228(s8)
    6f0c:	24021d8d 	li	v0,7565
    6f10:	afc23798 	sw	v0,14232(s8)
    6f14:	2402161e 	li	v0,5662
    6f18:	afc2379c 	sw	v0,14236(s8)
    6f1c:	240202f0 	li	v0,752
    6f20:	afc237a0 	sw	v0,14240(s8)
    6f24:	24020536 	li	v0,1334
    6f28:	afc237a4 	sw	v0,14244(s8)
    6f2c:	24020af3 	li	v0,2803
    6f30:	afc237a8 	sw	v0,14248(s8)
    6f34:	240210c1 	li	v0,4289
    6f38:	afc237ac 	sw	v0,14252(s8)
    6f3c:	2402018c 	li	v0,396
    6f40:	afc237b0 	sw	v0,14256(s8)
    6f44:	24021904 	li	v0,6404
    6f48:	afc237b4 	sw	v0,14260(s8)
    6f4c:	240208f8 	li	v0,2296
    6f50:	afc237b8 	sw	v0,14264(s8)
    6f54:	240222c1 	li	v0,8897
    6f58:	afc237bc 	sw	v0,14268(s8)
    6f5c:	2402069e 	li	v0,1694
    6f60:	afc237c0 	sw	v0,14272(s8)
    6f64:	24021bb8 	li	v0,7096
    6f68:	afc237c4 	sw	v0,14276(s8)
    6f6c:	2402244c 	li	v0,9292
    6f70:	afc237c8 	sw	v0,14280(s8)
    6f74:	240216c5 	li	v0,5829
    6f78:	afc237cc 	sw	v0,14284(s8)
    6f7c:	240223ef 	li	v0,9199
    6f80:	afc237d0 	sw	v0,14288(s8)
    6f84:	2402180c 	li	v0,6156
    6f88:	afc237d4 	sw	v0,14292(s8)
    6f8c:	240219d9 	li	v0,6617
    6f90:	afc237d8 	sw	v0,14296(s8)
    6f94:	2402086e 	li	v0,2158
    6f98:	afc237dc 	sw	v0,14300(s8)
    6f9c:	24021cc7 	li	v0,7367
    6fa0:	afc237e0 	sw	v0,14304(s8)
    6fa4:	24021a09 	li	v0,6665
    6fa8:	afc237e4 	sw	v0,14308(s8)
    6fac:	24020142 	li	v0,322
    6fb0:	afc237e8 	sw	v0,14312(s8)
    6fb4:	240218f2 	li	v0,6386
    6fb8:	afc237ec 	sw	v0,14316(s8)
    6fbc:	24020c41 	li	v0,3137
    6fc0:	afc237f0 	sw	v0,14320(s8)
    6fc4:	24021f8a 	li	v0,8074
    6fc8:	afc237f4 	sw	v0,14324(s8)
    6fcc:	240207b9 	li	v0,1977
    6fd0:	afc237f8 	sw	v0,14328(s8)
    6fd4:	2402080d 	li	v0,2061
    6fd8:	afc237fc 	sw	v0,14332(s8)
    6fdc:	240210af 	li	v0,4271
    6fe0:	afc23800 	sw	v0,14336(s8)
    6fe4:	2402132c 	li	v0,4908
    6fe8:	afc23804 	sw	v0,14340(s8)
    6fec:	240209c4 	li	v0,2500
    6ff0:	afc23808 	sw	v0,14344(s8)
    6ff4:	24021a6e 	li	v0,6766
    6ff8:	afc2380c 	sw	v0,14348(s8)
    6ffc:	24021384 	li	v0,4996
    7000:	afc23810 	sw	v0,14352(s8)
    7004:	24020042 	li	v0,66
    7008:	afc23814 	sw	v0,14356(s8)
    700c:	2402224c 	li	v0,8780
    7010:	afc23818 	sw	v0,14360(s8)
    7014:	24021675 	li	v0,5749
    7018:	afc2381c 	sw	v0,14364(s8)
    701c:	24020578 	li	v0,1400
    7020:	afc23820 	sw	v0,14368(s8)
    7024:	24021eff 	li	v0,7935
    7028:	afc23824 	sw	v0,14372(s8)
    702c:	24020026 	li	v0,38
    7030:	afc23828 	sw	v0,14376(s8)
    7034:	24020705 	li	v0,1797
    7038:	afc2382c 	sw	v0,14380(s8)
    703c:	240210f4 	li	v0,4340
    7040:	afc23830 	sw	v0,14384(s8)
    7044:	2402091e 	li	v0,2334
    7048:	afc23834 	sw	v0,14388(s8)
    704c:	24021b86 	li	v0,7046
    7050:	afc23838 	sw	v0,14392(s8)
    7054:	24020952 	li	v0,2386
    7058:	afc2383c 	sw	v0,14396(s8)
    705c:	240224d6 	li	v0,9430
    7060:	afc23840 	sw	v0,14400(s8)
    7064:	24020a82 	li	v0,2690
    7068:	afc23844 	sw	v0,14404(s8)
    706c:	24022018 	li	v0,8216
    7070:	afc23848 	sw	v0,14408(s8)
    7074:	24021376 	li	v0,4982
    7078:	afc2384c 	sw	v0,14412(s8)
    707c:	2402228e 	li	v0,8846
    7080:	afc23850 	sw	v0,14416(s8)
    7084:	240204a1 	li	v0,1185
    7088:	afc23854 	sw	v0,14420(s8)
    708c:	24020da4 	li	v0,3492
    7090:	afc23858 	sw	v0,14424(s8)
    7094:	24021846 	li	v0,6214
    7098:	afc2385c 	sw	v0,14428(s8)
    709c:	24021eab 	li	v0,7851
    70a0:	afc23860 	sw	v0,14432(s8)
    70a4:	24020ee6 	li	v0,3814
    70a8:	afc23864 	sw	v0,14436(s8)
    70ac:	240222f8 	li	v0,8952
    70b0:	afc23868 	sw	v0,14440(s8)
    70b4:	24021cac 	li	v0,7340
    70b8:	afc2386c 	sw	v0,14444(s8)
    70bc:	24022031 	li	v0,8241
    70c0:	afc23870 	sw	v0,14448(s8)
    70c4:	240203a2 	li	v0,930
    70c8:	afc23874 	sw	v0,14452(s8)
    70cc:	24021679 	li	v0,5753
    70d0:	afc23878 	sw	v0,14456(s8)
    70d4:	240222a0 	li	v0,8864
    70d8:	afc2387c 	sw	v0,14460(s8)
    70dc:	2402088e 	li	v0,2190
    70e0:	afc23880 	sw	v0,14464(s8)
    70e4:	2402203e 	li	v0,8254
    70e8:	afc23884 	sw	v0,14468(s8)
    70ec:	240215fe 	li	v0,5630
    70f0:	afc23888 	sw	v0,14472(s8)
    70f4:	24021c12 	li	v0,7186
    70f8:	afc2388c 	sw	v0,14476(s8)
    70fc:	24021240 	li	v0,4672
    7100:	afc23890 	sw	v0,14480(s8)
    7104:	240202fa 	li	v0,762
    7108:	afc23894 	sw	v0,14484(s8)
    710c:	24022447 	li	v0,9287
    7110:	afc23898 	sw	v0,14488(s8)
    7114:	240217b8 	li	v0,6072
    7118:	afc2389c 	sw	v0,14492(s8)
    711c:	240221f9 	li	v0,8697
    7120:	afc238a0 	sw	v0,14496(s8)
    7124:	2402246d 	li	v0,9325
    7128:	afc238a4 	sw	v0,14500(s8)
    712c:	2402107d 	li	v0,4221
    7130:	afc238a8 	sw	v0,14504(s8)
    7134:	240224ad 	li	v0,9389
    7138:	afc238ac 	sw	v0,14508(s8)
    713c:	2402067c 	li	v0,1660
    7140:	afc238b0 	sw	v0,14512(s8)
    7144:	24021dc4 	li	v0,7620
    7148:	afc238b4 	sw	v0,14516(s8)
    714c:	240206f0 	li	v0,1776
    7150:	afc238b8 	sw	v0,14520(s8)
    7154:	24021d12 	li	v0,7442
    7158:	afc238bc 	sw	v0,14524(s8)
    715c:	24020136 	li	v0,310
    7160:	afc238c0 	sw	v0,14528(s8)
    7164:	24022708 	li	v0,9992
    7168:	afc238c4 	sw	v0,14532(s8)
    716c:	24020978 	li	v0,2424
    7170:	afc238c8 	sw	v0,14536(s8)
    7174:	24021585 	li	v0,5509
    7178:	afc238cc 	sw	v0,14540(s8)
    717c:	24021d69 	li	v0,7529
    7180:	afc238d0 	sw	v0,14544(s8)
    7184:	240208dd 	li	v0,2269
    7188:	afc238d4 	sw	v0,14548(s8)
    718c:	24021f8b 	li	v0,8075
    7190:	afc238d8 	sw	v0,14552(s8)
    7194:	24021504 	li	v0,5380
    7198:	afc238dc 	sw	v0,14556(s8)
    719c:	240217c3 	li	v0,6083
    71a0:	afc238e0 	sw	v0,14560(s8)
    71a4:	24021b73 	li	v0,7027
    71a8:	afc238e4 	sw	v0,14564(s8)
    71ac:	24020aa0 	li	v0,2720
    71b0:	afc238e8 	sw	v0,14568(s8)
    71b4:	240210e4 	li	v0,4324
    71b8:	afc238ec 	sw	v0,14572(s8)
    71bc:	240210d5 	li	v0,4309
    71c0:	afc238f0 	sw	v0,14576(s8)
    71c4:	2402211a 	li	v0,8474
    71c8:	afc238f4 	sw	v0,14580(s8)
    71cc:	24020c74 	li	v0,3188
    71d0:	afc238f8 	sw	v0,14584(s8)
    71d4:	24021963 	li	v0,6499
    71d8:	afc238fc 	sw	v0,14588(s8)
    71dc:	24020c08 	li	v0,3080
    71e0:	afc23900 	sw	v0,14592(s8)
    71e4:	24021432 	li	v0,5170
    71e8:	afc23904 	sw	v0,14596(s8)
    71ec:	24020026 	li	v0,38
    71f0:	afc23908 	sw	v0,14600(s8)
    71f4:	24021e48 	li	v0,7752
    71f8:	afc2390c 	sw	v0,14604(s8)
    71fc:	2402172c 	li	v0,5932
    7200:	afc23910 	sw	v0,14608(s8)
    7204:	2402246d 	li	v0,9325
    7208:	afc23914 	sw	v0,14612(s8)
    720c:	240200b0 	li	v0,176
    7210:	afc23918 	sw	v0,14616(s8)
    7214:	240203d6 	li	v0,982
    7218:	afc2391c 	sw	v0,14620(s8)
    721c:	240221cb 	li	v0,8651
    7220:	afc23920 	sw	v0,14624(s8)
    7224:	2402112e 	li	v0,4398
    7228:	afc23924 	sw	v0,14628(s8)
    722c:	24020173 	li	v0,371
    7230:	afc23928 	sw	v0,14632(s8)
    7234:	24021a07 	li	v0,6663
    7238:	afc2392c 	sw	v0,14636(s8)
    723c:	240220b2 	li	v0,8370
    7240:	afc23930 	sw	v0,14640(s8)
    7244:	24020863 	li	v0,2147
    7248:	afc23934 	sw	v0,14644(s8)
    724c:	240201c9 	li	v0,457
    7250:	afc23938 	sw	v0,14648(s8)
    7254:	240213a8 	li	v0,5032
    7258:	afc2393c 	sw	v0,14652(s8)
    725c:	2402212b 	li	v0,8491
    7260:	afc23940 	sw	v0,14656(s8)
    7264:	24022412 	li	v0,9234
    7268:	afc23944 	sw	v0,14660(s8)
    726c:	2402021d 	li	v0,541
    7270:	afc23948 	sw	v0,14664(s8)
    7274:	24021785 	li	v0,6021
    7278:	afc2394c 	sw	v0,14668(s8)
    727c:	240205df 	li	v0,1503
    7280:	afc23950 	sw	v0,14672(s8)
    7284:	240221a8 	li	v0,8616
    7288:	afc23954 	sw	v0,14676(s8)
    728c:	24021e49 	li	v0,7753
    7290:	afc23958 	sw	v0,14680(s8)
    7294:	24020f62 	li	v0,3938
    7298:	afc2395c 	sw	v0,14684(s8)
    729c:	240207cc 	li	v0,1996
    72a0:	afc23960 	sw	v0,14688(s8)
    72a4:	24021aaa 	li	v0,6826
    72a8:	afc23964 	sw	v0,14692(s8)
    72ac:	24022047 	li	v0,8263
    72b0:	afc23968 	sw	v0,14696(s8)
    72b4:	240218a1 	li	v0,6305
    72b8:	afc2396c 	sw	v0,14700(s8)
    72bc:	24020674 	li	v0,1652
    72c0:	afc23970 	sw	v0,14704(s8)
    72c4:	24021e7b 	li	v0,7803
    72c8:	afc23974 	sw	v0,14708(s8)
    72cc:	240223c5 	li	v0,9157
    72d0:	afc23978 	sw	v0,14712(s8)
    72d4:	2402127c 	li	v0,4732
    72d8:	afc2397c 	sw	v0,14716(s8)
    72dc:	2402246e 	li	v0,9326
    72e0:	afc23980 	sw	v0,14720(s8)
    72e4:	240223eb 	li	v0,9195
    72e8:	afc23984 	sw	v0,14724(s8)
    72ec:	24022284 	li	v0,8836
    72f0:	afc23988 	sw	v0,14728(s8)
    72f4:	2402148a 	li	v0,5258
    72f8:	afc2398c 	sw	v0,14732(s8)
    72fc:	24022148 	li	v0,8520
    7300:	afc23990 	sw	v0,14736(s8)
    7304:	24022334 	li	v0,9012
    7308:	afc23994 	sw	v0,14740(s8)
    730c:	24020a20 	li	v0,2592
    7310:	afc23998 	sw	v0,14744(s8)
    7314:	24020dc3 	li	v0,3523
    7318:	afc2399c 	sw	v0,14748(s8)
    731c:	24022622 	li	v0,9762
    7320:	afc239a0 	sw	v0,14752(s8)
    7324:	24020b94 	li	v0,2964
    7328:	afc239a4 	sw	v0,14756(s8)
    732c:	2402198a 	li	v0,6538
    7330:	afc239a8 	sw	v0,14760(s8)
    7334:	24021fc4 	li	v0,8132
    7338:	afc239ac 	sw	v0,14764(s8)
    733c:	240205b7 	li	v0,1463
    7340:	afc239b0 	sw	v0,14768(s8)
    7344:	24020d14 	li	v0,3348
    7348:	afc239b4 	sw	v0,14772(s8)
    734c:	24020c5d 	li	v0,3165
    7350:	afc239b8 	sw	v0,14776(s8)
    7354:	240218a3 	li	v0,6307
    7358:	afc239bc 	sw	v0,14780(s8)
    735c:	24020a16 	li	v0,2582
    7360:	afc239c0 	sw	v0,14784(s8)
    7364:	2402003a 	li	v0,58
    7368:	afc239c4 	sw	v0,14788(s8)
    736c:	24020918 	li	v0,2328
    7370:	afc239c8 	sw	v0,14792(s8)
    7374:	240201b5 	li	v0,437
    7378:	afc239cc 	sw	v0,14796(s8)
    737c:	240213a3 	li	v0,5027
    7380:	afc239d0 	sw	v0,14800(s8)
    7384:	24021921 	li	v0,6433
    7388:	afc239d4 	sw	v0,14804(s8)
    738c:	24021117 	li	v0,4375
    7390:	afc239d8 	sw	v0,14808(s8)
    7394:	24021b6f 	li	v0,7023
    7398:	afc239dc 	sw	v0,14812(s8)
    739c:	24020cbb 	li	v0,3259
    73a0:	afc239e0 	sw	v0,14816(s8)
    73a4:	2402231e 	li	v0,8990
    73a8:	afc239e4 	sw	v0,14820(s8)
    73ac:	24020d00 	li	v0,3328
    73b0:	afc239e8 	sw	v0,14824(s8)
    73b4:	2402132f 	li	v0,4911
    73b8:	afc239ec 	sw	v0,14828(s8)
    73bc:	24020c4a 	li	v0,3146
    73c0:	afc239f0 	sw	v0,14832(s8)
    73c4:	240209b5 	li	v0,2485
    73c8:	afc239f4 	sw	v0,14836(s8)
    73cc:	2402176b 	li	v0,5995
    73d0:	afc239f8 	sw	v0,14840(s8)
    73d4:	240209a8 	li	v0,2472
    73d8:	afc239fc 	sw	v0,14844(s8)
    73dc:	24021f60 	li	v0,8032
    73e0:	afc23a00 	sw	v0,14848(s8)
    73e4:	240212df 	li	v0,4831
    73e8:	afc23a04 	sw	v0,14852(s8)
    73ec:	24020ff2 	li	v0,4082
    73f0:	afc23a08 	sw	v0,14856(s8)
    73f4:	24020b59 	li	v0,2905
    73f8:	afc23a0c 	sw	v0,14860(s8)
    73fc:	240200c4 	li	v0,196
    7400:	afc23a10 	sw	v0,14864(s8)
    7404:	24021a13 	li	v0,6675
    7408:	afc23a14 	sw	v0,14868(s8)
    740c:	2402191c 	li	v0,6428
    7410:	afc23a18 	sw	v0,14872(s8)
    7414:	240226e6 	li	v0,9958
    7418:	afc23a1c 	sw	v0,14876(s8)
    741c:	240225a7 	li	v0,9639
    7420:	afc23a20 	sw	v0,14880(s8)
    7424:	24022467 	li	v0,9319
    7428:	afc23a24 	sw	v0,14884(s8)
    742c:	2402115b 	li	v0,4443
    7430:	afc23a28 	sw	v0,14888(s8)
    7434:	24021d1e 	li	v0,7454
    7438:	afc23a2c 	sw	v0,14892(s8)
    743c:	24020a6b 	li	v0,2667
    7440:	afc23a30 	sw	v0,14896(s8)
    7444:	24020f78 	li	v0,3960
    7448:	afc23a34 	sw	v0,14900(s8)
    744c:	24020eb1 	li	v0,3761
    7450:	afc23a38 	sw	v0,14904(s8)
    7454:	24020641 	li	v0,1601
    7458:	afc23a3c 	sw	v0,14908(s8)
    745c:	24020172 	li	v0,370
    7460:	afc23a40 	sw	v0,14912(s8)
    7464:	24020989 	li	v0,2441
    7468:	afc23a44 	sw	v0,14916(s8)
    746c:	240207f6 	li	v0,2038
    7470:	afc23a48 	sw	v0,14920(s8)
    7474:	24021515 	li	v0,5397
    7478:	afc23a4c 	sw	v0,14924(s8)
    747c:	240222ab 	li	v0,8875
    7480:	afc23a50 	sw	v0,14928(s8)
    7484:	2402190d 	li	v0,6413
    7488:	afc23a54 	sw	v0,14932(s8)
    748c:	24020974 	li	v0,2420
    7490:	afc23a58 	sw	v0,14936(s8)
    7494:	24022126 	li	v0,8486
    7498:	afc23a5c 	sw	v0,14940(s8)
    749c:	240206dc 	li	v0,1756
    74a0:	afc23a60 	sw	v0,14944(s8)
    74a4:	24020835 	li	v0,2101
    74a8:	afc23a64 	sw	v0,14948(s8)
    74ac:	24020d46 	li	v0,3398
    74b0:	afc23a68 	sw	v0,14952(s8)
    74b4:	24021326 	li	v0,4902
    74b8:	afc23a6c 	sw	v0,14956(s8)
    74bc:	240203aa 	li	v0,938
    74c0:	afc23a70 	sw	v0,14960(s8)
    74c4:	24021671 	li	v0,5745
    74c8:	afc23a74 	sw	v0,14964(s8)
    74cc:	24021cce 	li	v0,7374
    74d0:	afc23a78 	sw	v0,14968(s8)
    74d4:	240214cb 	li	v0,5323
    74d8:	afc23a7c 	sw	v0,14972(s8)
    74dc:	24021b11 	li	v0,6929
    74e0:	afc23a80 	sw	v0,14976(s8)
    74e4:	240205b0 	li	v0,1456
    74e8:	afc23a84 	sw	v0,14980(s8)
    74ec:	24022024 	li	v0,8228
    74f0:	afc23a88 	sw	v0,14984(s8)
    74f4:	24021bd5 	li	v0,7125
    74f8:	afc23a8c 	sw	v0,14988(s8)
    74fc:	24021fc3 	li	v0,8131
    7500:	afc23a90 	sw	v0,14992(s8)
    7504:	240203f0 	li	v0,1008
    7508:	afc23a94 	sw	v0,14996(s8)
    750c:	24020d6b 	li	v0,3435
    7510:	afc23a98 	sw	v0,15000(s8)
    7514:	2402101a 	li	v0,4122
    7518:	afc23a9c 	sw	v0,15004(s8)
    751c:	24021a17 	li	v0,6679
    7520:	afc23aa0 	sw	v0,15008(s8)
    7524:	24021086 	li	v0,4230
    7528:	afc23aa4 	sw	v0,15012(s8)
    752c:	24020629 	li	v0,1577
    7530:	afc23aa8 	sw	v0,15016(s8)
    7534:	24022482 	li	v0,9346
    7538:	afc23aac 	sw	v0,15020(s8)
    753c:	24021ffe 	li	v0,8190
    7540:	afc23ab0 	sw	v0,15024(s8)
    7544:	2402069a 	li	v0,1690
    7548:	afc23ab4 	sw	v0,15028(s8)
    754c:	240203b3 	li	v0,947
    7550:	afc23ab8 	sw	v0,15032(s8)
    7554:	24021331 	li	v0,4913
    7558:	afc23abc 	sw	v0,15036(s8)
    755c:	24021024 	li	v0,4132
    7560:	afc23ac0 	sw	v0,15040(s8)
    7564:	24022479 	li	v0,9337
    7568:	afc23ac4 	sw	v0,15044(s8)
    756c:	24020136 	li	v0,310
    7570:	afc23ac8 	sw	v0,15048(s8)
    7574:	24020bbf 	li	v0,3007
    7578:	afc23acc 	sw	v0,15052(s8)
    757c:	24021677 	li	v0,5751
    7580:	afc23ad0 	sw	v0,15056(s8)
    7584:	2402237b 	li	v0,9083
    7588:	afc23ad4 	sw	v0,15060(s8)
    758c:	240205d5 	li	v0,1493
    7590:	afc23ad8 	sw	v0,15064(s8)
    7594:	24021d53 	li	v0,7507
    7598:	afc23adc 	sw	v0,15068(s8)
    759c:	24021d70 	li	v0,7536
    75a0:	afc23ae0 	sw	v0,15072(s8)
    75a4:	240204db 	li	v0,1243
    75a8:	afc23ae4 	sw	v0,15076(s8)
    75ac:	24020969 	li	v0,2409
    75b0:	afc23ae8 	sw	v0,15080(s8)
    75b4:	240212da 	li	v0,4826
    75b8:	afc23aec 	sw	v0,15084(s8)
    75bc:	24021b4d 	li	v0,6989
    75c0:	afc23af0 	sw	v0,15088(s8)
    75c4:	240217f7 	li	v0,6135
    75c8:	afc23af4 	sw	v0,15092(s8)
    75cc:	24020095 	li	v0,149
    75d0:	afc23af8 	sw	v0,15096(s8)
    75d4:	24020f4e 	li	v0,3918
    75d8:	afc23afc 	sw	v0,15100(s8)
    75dc:	24021da7 	li	v0,7591
    75e0:	afc23b00 	sw	v0,15104(s8)
    75e4:	240220b9 	li	v0,8377
    75e8:	afc23b04 	sw	v0,15108(s8)
    75ec:	24021ce3 	li	v0,7395
    75f0:	afc23b08 	sw	v0,15112(s8)
    75f4:	2402165b 	li	v0,5723
    75f8:	afc23b0c 	sw	v0,15116(s8)
    75fc:	2402166a 	li	v0,5738
    7600:	afc23b10 	sw	v0,15120(s8)
    7604:	2402033e 	li	v0,830
